	.file	"mainDriver.cpp"
	.section	.text._ZnwmPv,"axG",@progbits,_ZnwmPv,comdat
	.weak	_ZnwmPv
	.type	_ZnwmPv, @function
_ZnwmPv:
.LFB280:
	.cfi_startproc
	pushq	%rbp
	.cfi_def_cfa_offset 16
	.cfi_offset 6, -16
	movq	%rsp, %rbp
	.cfi_def_cfa_register 6
	movq	%rdi, -8(%rbp)
	movq	%rsi, -16(%rbp)
	movq	-16(%rbp), %rax
	popq	%rbp
	.cfi_def_cfa 7, 8
	ret
	.cfi_endproc
.LFE280:
	.size	_ZnwmPv, .-_ZnwmPv
	.section	.text._ZdlPvS_,"axG",@progbits,_ZdlPvS_,comdat
	.weak	_ZdlPvS_
	.type	_ZdlPvS_, @function
_ZdlPvS_:
.LFB282:
	.cfi_startproc
	pushq	%rbp
	.cfi_def_cfa_offset 16
	.cfi_offset 6, -16
	movq	%rsp, %rbp
	.cfi_def_cfa_register 6
	movq	%rdi, -8(%rbp)
	movq	%rsi, -16(%rbp)
	nop
	popq	%rbp
	.cfi_def_cfa 7, 8
	ret
	.cfi_endproc
.LFE282:
	.size	_ZdlPvS_, .-_ZdlPvS_
	.section	.rodata
	.type	_ZStL19piecewise_construct, @object
	.size	_ZStL19piecewise_construct, 1
_ZStL19piecewise_construct:
	.zero	1
	.section	.text._ZNSt11char_traitsIcE7compareEPKcS2_m,"axG",@progbits,_ZNSt11char_traitsIcE7compareEPKcS2_m,comdat
	.weak	_ZNSt11char_traitsIcE7compareEPKcS2_m
	.type	_ZNSt11char_traitsIcE7compareEPKcS2_m, @function
_ZNSt11char_traitsIcE7compareEPKcS2_m:
.LFB628:
	.cfi_startproc
	pushq	%rbp
	.cfi_def_cfa_offset 16
	.cfi_offset 6, -16
	movq	%rsp, %rbp
	.cfi_def_cfa_register 6
	subq	$32, %rsp
	movq	%rdi, -8(%rbp)
	movq	%rsi, -16(%rbp)
	movq	%rdx, -24(%rbp)
	cmpq	$0, -24(%rbp)
	jne	.L5
	movl	$0, %eax
	jmp	.L6
.L5:
	movq	-24(%rbp), %rdx
	movq	-16(%rbp), %rcx
	movq	-8(%rbp), %rax
	movq	%rcx, %rsi
	movq	%rax, %rdi
	call	memcmp@PLT
.L6:
	leave
	.cfi_def_cfa 7, 8
	ret
	.cfi_endproc
.LFE628:
	.size	_ZNSt11char_traitsIcE7compareEPKcS2_m, .-_ZNSt11char_traitsIcE7compareEPKcS2_m
	.section	.rodata
.LC0:
	.string	"stoi"
	.section	.text._ZNSt7__cxx114stoiERKNS_12basic_stringIcSt11char_traitsIcESaIcEEEPmi,"axG",@progbits,_ZNSt7__cxx114stoiERKNS_12basic_stringIcSt11char_traitsIcESaIcEEEPmi,comdat
	.weak	_ZNSt7__cxx114stoiERKNS_12basic_stringIcSt11char_traitsIcESaIcEEEPmi
	.type	_ZNSt7__cxx114stoiERKNS_12basic_stringIcSt11char_traitsIcESaIcEEEPmi, @function
_ZNSt7__cxx114stoiERKNS_12basic_stringIcSt11char_traitsIcESaIcEEEPmi:
.LFB1105:
	.cfi_startproc
	pushq	%rbp
	.cfi_def_cfa_offset 16
	.cfi_offset 6, -16
	movq	%rsp, %rbp
	.cfi_def_cfa_register 6
	subq	$32, %rsp
	movq	%rdi, -8(%rbp)
	movq	%rsi, -16(%rbp)
	movl	%edx, -20(%rbp)
	movq	-8(%rbp), %rax
	movq	%rax, %rdi
	call	_ZNKSt7__cxx1112basic_stringIcSt11char_traitsIcESaIcEE5c_strEv@PLT
	movq	%rax, %rsi
	movl	-20(%rbp), %edx
	movq	-16(%rbp), %rax
	movl	%edx, %r8d
	movq	%rax, %rcx
	movq	%rsi, %rdx
	leaq	.LC0(%rip), %rsi
	movq	strtol@GOTPCREL(%rip), %rax
	movq	%rax, %rdi
	call	_ZN9__gnu_cxx6__stoaIlicJiEEET0_PFT_PKT1_PPS3_DpT2_EPKcS5_PmS9_
	leave
	.cfi_def_cfa 7, 8
	ret
	.cfi_endproc
.LFE1105:
	.size	_ZNSt7__cxx114stoiERKNS_12basic_stringIcSt11char_traitsIcESaIcEEEPmi, .-_ZNSt7__cxx114stoiERKNS_12basic_stringIcSt11char_traitsIcESaIcEEEPmi
	.section	.text._ZNSt10_Hash_impl4hashEPKvmm,"axG",@progbits,_ZNSt10_Hash_impl4hashEPKvmm,comdat
	.weak	_ZNSt10_Hash_impl4hashEPKvmm
	.type	_ZNSt10_Hash_impl4hashEPKvmm, @function
_ZNSt10_Hash_impl4hashEPKvmm:
.LFB1158:
	.cfi_startproc
	pushq	%rbp
	.cfi_def_cfa_offset 16
	.cfi_offset 6, -16
	movq	%rsp, %rbp
	.cfi_def_cfa_register 6
	subq	$32, %rsp
	movq	%rdi, -8(%rbp)
	movq	%rsi, -16(%rbp)
	movq	%rdx, -24(%rbp)
	movq	-24(%rbp), %rdx
	movq	-16(%rbp), %rcx
	movq	-8(%rbp), %rax
	movq	%rcx, %rsi
	movq	%rax, %rdi
	call	_ZSt11_Hash_bytesPKvmm@PLT
	leave
	.cfi_def_cfa 7, 8
	ret
	.cfi_endproc
.LFE1158:
	.size	_ZNSt10_Hash_impl4hashEPKvmm, .-_ZNSt10_Hash_impl4hashEPKvmm
	.section	.text._ZNKSt4hashINSt7__cxx1112basic_stringIcSt11char_traitsIcESaIcEEEEclERKS5_,"axG",@progbits,_ZNKSt4hashINSt7__cxx1112basic_stringIcSt11char_traitsIcESaIcEEEEclERKS5_,comdat
	.align 2
	.weak	_ZNKSt4hashINSt7__cxx1112basic_stringIcSt11char_traitsIcESaIcEEEEclERKS5_
	.type	_ZNKSt4hashINSt7__cxx1112basic_stringIcSt11char_traitsIcESaIcEEEEclERKS5_, @function
_ZNKSt4hashINSt7__cxx1112basic_stringIcSt11char_traitsIcESaIcEEEEclERKS5_:
.LFB1166:
	.cfi_startproc
	.cfi_personality 0x9b,DW.ref.__gxx_personality_v0
	.cfi_lsda 0x1b,.LLSDA1166
	pushq	%rbp
	.cfi_def_cfa_offset 16
	.cfi_offset 6, -16
	movq	%rsp, %rbp
	.cfi_def_cfa_register 6
	pushq	%rbx
	subq	$24, %rsp
	.cfi_offset 3, -24
	movq	%rdi, -24(%rbp)
	movq	%rsi, -32(%rbp)
	movq	-32(%rbp), %rax
	movq	%rax, %rdi
	call	_ZNKSt7__cxx1112basic_stringIcSt11char_traitsIcESaIcEE6lengthEv@PLT
	movq	%rax, %rbx
	movq	-32(%rbp), %rax
	movq	%rax, %rdi
	call	_ZNKSt7__cxx1112basic_stringIcSt11char_traitsIcESaIcEE4dataEv@PLT
	movl	$3339675911, %edx
	movq	%rbx, %rsi
	movq	%rax, %rdi
	call	_ZNSt10_Hash_impl4hashEPKvmm
	addq	$24, %rsp
	popq	%rbx
	popq	%rbp
	.cfi_def_cfa 7, 8
	ret
	.cfi_endproc
.LFE1166:
	.globl	__gxx_personality_v0
	.section	.gcc_except_table._ZNKSt4hashINSt7__cxx1112basic_stringIcSt11char_traitsIcESaIcEEEEclERKS5_,"aG",@progbits,_ZNKSt4hashINSt7__cxx1112basic_stringIcSt11char_traitsIcESaIcEEEEclERKS5_,comdat
.LLSDA1166:
	.byte	0xff
	.byte	0xff
	.byte	0x1
	.uleb128 .LLSDACSE1166-.LLSDACSB1166
.LLSDACSB1166:
.LLSDACSE1166:
	.section	.text._ZNKSt4hashINSt7__cxx1112basic_stringIcSt11char_traitsIcESaIcEEEEclERKS5_,"axG",@progbits,_ZNKSt4hashINSt7__cxx1112basic_stringIcSt11char_traitsIcESaIcEEEEclERKS5_,comdat
	.size	_ZNKSt4hashINSt7__cxx1112basic_stringIcSt11char_traitsIcESaIcEEEEclERKS5_, .-_ZNKSt4hashINSt7__cxx1112basic_stringIcSt11char_traitsIcESaIcEEEEclERKS5_
	.section	.text._ZStorSt13_Ios_OpenmodeS_,"axG",@progbits,_ZStorSt13_Ios_OpenmodeS_,comdat
	.weak	_ZStorSt13_Ios_OpenmodeS_
	.type	_ZStorSt13_Ios_OpenmodeS_, @function
_ZStorSt13_Ios_OpenmodeS_:
.LFB1319:
	.cfi_startproc
	pushq	%rbp
	.cfi_def_cfa_offset 16
	.cfi_offset 6, -16
	movq	%rsp, %rbp
	.cfi_def_cfa_register 6
	movl	%edi, -4(%rbp)
	movl	%esi, -8(%rbp)
	movl	-4(%rbp), %eax
	orl	-8(%rbp), %eax
	popq	%rbp
	.cfi_def_cfa 7, 8
	ret
	.cfi_endproc
.LFE1319:
	.size	_ZStorSt13_Ios_OpenmodeS_, .-_ZStorSt13_Ios_OpenmodeS_
	.section	.rodata
	.type	_ZStL13allocator_arg, @object
	.size	_ZStL13allocator_arg, 1
_ZStL13allocator_arg:
	.zero	1
	.type	_ZStL6ignore, @object
	.size	_ZStL6ignore, 1
_ZStL6ignore:
	.zero	1
	.local	_ZStL8__ioinit
	.comm	_ZStL8__ioinit,1,1
	.section	.text._ZNSt15_Rb_tree_headerC2Ev,"axG",@progbits,_ZNSt15_Rb_tree_headerC5Ev,comdat
	.align 2
	.weak	_ZNSt15_Rb_tree_headerC2Ev
	.type	_ZNSt15_Rb_tree_headerC2Ev, @function
_ZNSt15_Rb_tree_headerC2Ev:
.LFB3736:
	.cfi_startproc
	pushq	%rbp
	.cfi_def_cfa_offset 16
	.cfi_offset 6, -16
	movq	%rsp, %rbp
	.cfi_def_cfa_register 6
	subq	$16, %rsp
	movq	%rdi, -8(%rbp)
	movq	-8(%rbp), %rax
	movl	$0, (%rax)
	movq	-8(%rbp), %rax
	movq	%rax, %rdi
	call	_ZNSt15_Rb_tree_header8_M_resetEv
	nop
	leave
	.cfi_def_cfa 7, 8
	ret
	.cfi_endproc
.LFE3736:
	.size	_ZNSt15_Rb_tree_headerC2Ev, .-_ZNSt15_Rb_tree_headerC2Ev
	.weak	_ZNSt15_Rb_tree_headerC1Ev
	.set	_ZNSt15_Rb_tree_headerC1Ev,_ZNSt15_Rb_tree_headerC2Ev
	.section	.text._ZNSt15_Rb_tree_header8_M_resetEv,"axG",@progbits,_ZNSt15_Rb_tree_header8_M_resetEv,comdat
	.align 2
	.weak	_ZNSt15_Rb_tree_header8_M_resetEv
	.type	_ZNSt15_Rb_tree_header8_M_resetEv, @function
_ZNSt15_Rb_tree_header8_M_resetEv:
.LFB3742:
	.cfi_startproc
	pushq	%rbp
	.cfi_def_cfa_offset 16
	.cfi_offset 6, -16
	movq	%rsp, %rbp
	.cfi_def_cfa_register 6
	movq	%rdi, -8(%rbp)
	movq	-8(%rbp), %rax
	movq	$0, 8(%rax)
	movq	-8(%rbp), %rdx
	movq	-8(%rbp), %rax
	movq	%rdx, 16(%rax)
	movq	-8(%rbp), %rdx
	movq	-8(%rbp), %rax
	movq	%rdx, 24(%rax)
	movq	-8(%rbp), %rax
	movq	$0, 32(%rax)
	nop
	popq	%rbp
	.cfi_def_cfa 7, 8
	ret
	.cfi_endproc
.LFE3742:
	.size	_ZNSt15_Rb_tree_header8_M_resetEv, .-_ZNSt15_Rb_tree_header8_M_resetEv
	.section	.rodata
	.align 4
	.type	_ZN9__gnu_cxxL21__default_lock_policyE, @object
	.size	_ZN9__gnu_cxxL21__default_lock_policyE, 4
_ZN9__gnu_cxxL21__default_lock_policyE:
	.long	2
	.type	_ZStL10defer_lock, @object
	.size	_ZStL10defer_lock, 1
_ZStL10defer_lock:
	.zero	1
	.type	_ZStL11try_to_lock, @object
	.size	_ZStL11try_to_lock, 1
_ZStL11try_to_lock:
	.zero	1
	.type	_ZStL10adopt_lock, @object
	.size	_ZStL10adopt_lock, 1
_ZStL10adopt_lock:
	.zero	1
	.align 4
	.type	_ZNSt15regex_constantsL5icaseE, @object
	.size	_ZNSt15regex_constantsL5icaseE, 4
_ZNSt15regex_constantsL5icaseE:
	.long	1
	.align 4
	.type	_ZNSt15regex_constantsL6nosubsE, @object
	.size	_ZNSt15regex_constantsL6nosubsE, 4
_ZNSt15regex_constantsL6nosubsE:
	.long	2
	.align 4
	.type	_ZNSt15regex_constantsL8optimizeE, @object
	.size	_ZNSt15regex_constantsL8optimizeE, 4
_ZNSt15regex_constantsL8optimizeE:
	.long	4
	.align 4
	.type	_ZNSt15regex_constantsL7collateE, @object
	.size	_ZNSt15regex_constantsL7collateE, 4
_ZNSt15regex_constantsL7collateE:
	.long	8
	.align 4
	.type	_ZNSt15regex_constantsL10ECMAScriptE, @object
	.size	_ZNSt15regex_constantsL10ECMAScriptE, 4
_ZNSt15regex_constantsL10ECMAScriptE:
	.long	16
	.align 4
	.type	_ZNSt15regex_constantsL5basicE, @object
	.size	_ZNSt15regex_constantsL5basicE, 4
_ZNSt15regex_constantsL5basicE:
	.long	32
	.align 4
	.type	_ZNSt15regex_constantsL8extendedE, @object
	.size	_ZNSt15regex_constantsL8extendedE, 4
_ZNSt15regex_constantsL8extendedE:
	.long	64
	.align 4
	.type	_ZNSt15regex_constantsL3awkE, @object
	.size	_ZNSt15regex_constantsL3awkE, 4
_ZNSt15regex_constantsL3awkE:
	.long	128
	.align 4
	.type	_ZNSt15regex_constantsL4grepE, @object
	.size	_ZNSt15regex_constantsL4grepE, 4
_ZNSt15regex_constantsL4grepE:
	.long	256
	.align 4
	.type	_ZNSt15regex_constantsL5egrepE, @object
	.size	_ZNSt15regex_constantsL5egrepE, 4
_ZNSt15regex_constantsL5egrepE:
	.long	512
	.align 4
	.type	_ZNSt15regex_constantsL12__polynomialE, @object
	.size	_ZNSt15regex_constantsL12__polynomialE, 4
_ZNSt15regex_constantsL12__polynomialE:
	.long	1024
	.align 4
	.type	_ZNSt15regex_constantsL13match_defaultE, @object
	.size	_ZNSt15regex_constantsL13match_defaultE, 4
_ZNSt15regex_constantsL13match_defaultE:
	.zero	4
	.align 4
	.type	_ZNSt15regex_constantsL13match_not_bolE, @object
	.size	_ZNSt15regex_constantsL13match_not_bolE, 4
_ZNSt15regex_constantsL13match_not_bolE:
	.long	1
	.align 4
	.type	_ZNSt15regex_constantsL13match_not_eolE, @object
	.size	_ZNSt15regex_constantsL13match_not_eolE, 4
_ZNSt15regex_constantsL13match_not_eolE:
	.long	2
	.align 4
	.type	_ZNSt15regex_constantsL13match_not_bowE, @object
	.size	_ZNSt15regex_constantsL13match_not_bowE, 4
_ZNSt15regex_constantsL13match_not_bowE:
	.long	4
	.align 4
	.type	_ZNSt15regex_constantsL13match_not_eowE, @object
	.size	_ZNSt15regex_constantsL13match_not_eowE, 4
_ZNSt15regex_constantsL13match_not_eowE:
	.long	8
	.align 4
	.type	_ZNSt15regex_constantsL9match_anyE, @object
	.size	_ZNSt15regex_constantsL9match_anyE, 4
_ZNSt15regex_constantsL9match_anyE:
	.long	16
	.align 4
	.type	_ZNSt15regex_constantsL14match_not_nullE, @object
	.size	_ZNSt15regex_constantsL14match_not_nullE, 4
_ZNSt15regex_constantsL14match_not_nullE:
	.long	32
	.align 4
	.type	_ZNSt15regex_constantsL16match_continuousE, @object
	.size	_ZNSt15regex_constantsL16match_continuousE, 4
_ZNSt15regex_constantsL16match_continuousE:
	.long	64
	.align 4
	.type	_ZNSt15regex_constantsL16match_prev_availE, @object
	.size	_ZNSt15regex_constantsL16match_prev_availE, 4
_ZNSt15regex_constantsL16match_prev_availE:
	.long	128
	.align 4
	.type	_ZNSt15regex_constantsL14format_defaultE, @object
	.size	_ZNSt15regex_constantsL14format_defaultE, 4
_ZNSt15regex_constantsL14format_defaultE:
	.zero	4
	.align 4
	.type	_ZNSt15regex_constantsL10format_sedE, @object
	.size	_ZNSt15regex_constantsL10format_sedE, 4
_ZNSt15regex_constantsL10format_sedE:
	.long	256
	.align 4
	.type	_ZNSt15regex_constantsL14format_no_copyE, @object
	.size	_ZNSt15regex_constantsL14format_no_copyE, 4
_ZNSt15regex_constantsL14format_no_copyE:
	.long	512
	.align 4
	.type	_ZNSt15regex_constantsL17format_first_onlyE, @object
	.size	_ZNSt15regex_constantsL17format_first_onlyE, 4
_ZNSt15regex_constantsL17format_first_onlyE:
	.long	1024
	.align 4
	.type	_ZNSt15regex_constantsL13error_collateE, @object
	.size	_ZNSt15regex_constantsL13error_collateE, 4
_ZNSt15regex_constantsL13error_collateE:
	.zero	4
	.align 4
	.type	_ZNSt15regex_constantsL11error_ctypeE, @object
	.size	_ZNSt15regex_constantsL11error_ctypeE, 4
_ZNSt15regex_constantsL11error_ctypeE:
	.long	1
	.align 4
	.type	_ZNSt15regex_constantsL12error_escapeE, @object
	.size	_ZNSt15regex_constantsL12error_escapeE, 4
_ZNSt15regex_constantsL12error_escapeE:
	.long	2
	.align 4
	.type	_ZNSt15regex_constantsL13error_backrefE, @object
	.size	_ZNSt15regex_constantsL13error_backrefE, 4
_ZNSt15regex_constantsL13error_backrefE:
	.long	3
	.align 4
	.type	_ZNSt15regex_constantsL11error_brackE, @object
	.size	_ZNSt15regex_constantsL11error_brackE, 4
_ZNSt15regex_constantsL11error_brackE:
	.long	4
	.align 4
	.type	_ZNSt15regex_constantsL11error_parenE, @object
	.size	_ZNSt15regex_constantsL11error_parenE, 4
_ZNSt15regex_constantsL11error_parenE:
	.long	5
	.align 4
	.type	_ZNSt15regex_constantsL11error_braceE, @object
	.size	_ZNSt15regex_constantsL11error_braceE, 4
_ZNSt15regex_constantsL11error_braceE:
	.long	6
	.align 4
	.type	_ZNSt15regex_constantsL14error_badbraceE, @object
	.size	_ZNSt15regex_constantsL14error_badbraceE, 4
_ZNSt15regex_constantsL14error_badbraceE:
	.long	7
	.align 4
	.type	_ZNSt15regex_constantsL11error_rangeE, @object
	.size	_ZNSt15regex_constantsL11error_rangeE, 4
_ZNSt15regex_constantsL11error_rangeE:
	.long	8
	.align 4
	.type	_ZNSt15regex_constantsL11error_spaceE, @object
	.size	_ZNSt15regex_constantsL11error_spaceE, 4
_ZNSt15regex_constantsL11error_spaceE:
	.long	9
	.align 4
	.type	_ZNSt15regex_constantsL15error_badrepeatE, @object
	.size	_ZNSt15regex_constantsL15error_badrepeatE, 4
_ZNSt15regex_constantsL15error_badrepeatE:
	.long	10
	.align 4
	.type	_ZNSt15regex_constantsL16error_complexityE, @object
	.size	_ZNSt15regex_constantsL16error_complexityE, 4
_ZNSt15regex_constantsL16error_complexityE:
	.long	11
	.align 4
	.type	_ZNSt15regex_constantsL11error_stackE, @object
	.size	_ZNSt15regex_constantsL11error_stackE, 4
_ZNSt15regex_constantsL11error_stackE:
	.long	12
	.align 8
	.type	_ZNSt8__detailL19_S_invalid_state_idE, @object
	.size	_ZNSt8__detailL19_S_invalid_state_idE, 8
_ZNSt8__detailL19_S_invalid_state_idE:
	.quad	-1
	.section	.text._ZNSt8__detail15_Hash_node_baseC2Ev,"axG",@progbits,_ZNSt8__detail15_Hash_node_baseC5Ev,comdat
	.align 2
	.weak	_ZNSt8__detail15_Hash_node_baseC2Ev
	.type	_ZNSt8__detail15_Hash_node_baseC2Ev, @function
_ZNSt8__detail15_Hash_node_baseC2Ev:
.LFB7598:
	.cfi_startproc
	pushq	%rbp
	.cfi_def_cfa_offset 16
	.cfi_offset 6, -16
	movq	%rsp, %rbp
	.cfi_def_cfa_register 6
	movq	%rdi, -8(%rbp)
	movq	-8(%rbp), %rax
	movq	$0, (%rax)
	nop
	popq	%rbp
	.cfi_def_cfa 7, 8
	ret
	.cfi_endproc
.LFE7598:
	.size	_ZNSt8__detail15_Hash_node_baseC2Ev, .-_ZNSt8__detail15_Hash_node_baseC2Ev
	.weak	_ZNSt8__detail15_Hash_node_baseC1Ev
	.set	_ZNSt8__detail15_Hash_node_baseC1Ev,_ZNSt8__detail15_Hash_node_baseC2Ev
	.section	.text._ZNKSt8__detail18_Mod_range_hashingclEmm,"axG",@progbits,_ZNKSt8__detail18_Mod_range_hashingclEmm,comdat
	.align 2
	.weak	_ZNKSt8__detail18_Mod_range_hashingclEmm
	.type	_ZNKSt8__detail18_Mod_range_hashingclEmm, @function
_ZNKSt8__detail18_Mod_range_hashingclEmm:
.LFB7626:
	.cfi_startproc
	pushq	%rbp
	.cfi_def_cfa_offset 16
	.cfi_offset 6, -16
	movq	%rsp, %rbp
	.cfi_def_cfa_register 6
	movq	%rdi, -8(%rbp)
	movq	%rsi, -16(%rbp)
	movq	%rdx, -24(%rbp)
	movq	-16(%rbp), %rax
	movl	$0, %edx
	divq	-24(%rbp)
	movq	%rdx, %rax
	popq	%rbp
	.cfi_def_cfa 7, 8
	ret
	.cfi_endproc
.LFE7626:
	.size	_ZNKSt8__detail18_Mod_range_hashingclEmm, .-_ZNKSt8__detail18_Mod_range_hashingclEmm
	.section	.text._ZNSt8__detail20_Prime_rehash_policyC2Ef,"axG",@progbits,_ZNSt8__detail20_Prime_rehash_policyC5Ef,comdat
	.align 2
	.weak	_ZNSt8__detail20_Prime_rehash_policyC2Ef
	.type	_ZNSt8__detail20_Prime_rehash_policyC2Ef, @function
_ZNSt8__detail20_Prime_rehash_policyC2Ef:
.LFB7628:
	.cfi_startproc
	pushq	%rbp
	.cfi_def_cfa_offset 16
	.cfi_offset 6, -16
	movq	%rsp, %rbp
	.cfi_def_cfa_register 6
	movq	%rdi, -8(%rbp)
	movss	%xmm0, -12(%rbp)
	movq	-8(%rbp), %rax
	movss	-12(%rbp), %xmm0
	movss	%xmm0, (%rax)
	movq	-8(%rbp), %rax
	movq	$0, 8(%rax)
	nop
	popq	%rbp
	.cfi_def_cfa 7, 8
	ret
	.cfi_endproc
.LFE7628:
	.size	_ZNSt8__detail20_Prime_rehash_policyC2Ef, .-_ZNSt8__detail20_Prime_rehash_policyC2Ef
	.weak	_ZNSt8__detail20_Prime_rehash_policyC1Ef
	.set	_ZNSt8__detail20_Prime_rehash_policyC1Ef,_ZNSt8__detail20_Prime_rehash_policyC2Ef
	.section	.text._ZNKSt8__detail20_Prime_rehash_policy8_M_stateEv,"axG",@progbits,_ZNKSt8__detail20_Prime_rehash_policy8_M_stateEv,comdat
	.align 2
	.weak	_ZNKSt8__detail20_Prime_rehash_policy8_M_stateEv
	.type	_ZNKSt8__detail20_Prime_rehash_policy8_M_stateEv, @function
_ZNKSt8__detail20_Prime_rehash_policy8_M_stateEv:
.LFB7632:
	.cfi_startproc
	pushq	%rbp
	.cfi_def_cfa_offset 16
	.cfi_offset 6, -16
	movq	%rsp, %rbp
	.cfi_def_cfa_register 6
	movq	%rdi, -8(%rbp)
	movq	-8(%rbp), %rax
	movq	8(%rax), %rax
	popq	%rbp
	.cfi_def_cfa 7, 8
	ret
	.cfi_endproc
.LFE7632:
	.size	_ZNKSt8__detail20_Prime_rehash_policy8_M_stateEv, .-_ZNKSt8__detail20_Prime_rehash_policy8_M_stateEv
	.section	.text._ZNSt8__detail20_Prime_rehash_policy8_M_resetEm,"axG",@progbits,_ZNSt8__detail20_Prime_rehash_policy8_M_resetEm,comdat
	.align 2
	.weak	_ZNSt8__detail20_Prime_rehash_policy8_M_resetEm
	.type	_ZNSt8__detail20_Prime_rehash_policy8_M_resetEm, @function
_ZNSt8__detail20_Prime_rehash_policy8_M_resetEm:
.LFB7634:
	.cfi_startproc
	pushq	%rbp
	.cfi_def_cfa_offset 16
	.cfi_offset 6, -16
	movq	%rsp, %rbp
	.cfi_def_cfa_register 6
	movq	%rdi, -8(%rbp)
	movq	%rsi, -16(%rbp)
	movq	-8(%rbp), %rax
	movq	-16(%rbp), %rdx
	movq	%rdx, 8(%rax)
	nop
	popq	%rbp
	.cfi_def_cfa 7, 8
	ret
	.cfi_endproc
.LFE7634:
	.size	_ZNSt8__detail20_Prime_rehash_policy8_M_resetEm, .-_ZNSt8__detail20_Prime_rehash_policy8_M_resetEm
	.section	.text._ZSt7forwardIbEOT_RNSt16remove_referenceIS0_E4typeE,"axG",@progbits,_ZSt7forwardIbEOT_RNSt16remove_referenceIS0_E4typeE,comdat
	.weak	_ZSt7forwardIbEOT_RNSt16remove_referenceIS0_E4typeE
	.type	_ZSt7forwardIbEOT_RNSt16remove_referenceIS0_E4typeE, @function
_ZSt7forwardIbEOT_RNSt16remove_referenceIS0_E4typeE:
.LFB7662:
	.cfi_startproc
	pushq	%rbp
	.cfi_def_cfa_offset 16
	.cfi_offset 6, -16
	movq	%rsp, %rbp
	.cfi_def_cfa_register 6
	movq	%rdi, -8(%rbp)
	movq	-8(%rbp), %rax
	popq	%rbp
	.cfi_def_cfa 7, 8
	ret
	.cfi_endproc
.LFE7662:
	.size	_ZSt7forwardIbEOT_RNSt16remove_referenceIS0_E4typeE, .-_ZSt7forwardIbEOT_RNSt16remove_referenceIS0_E4typeE
	.section	.text._ZSt7forwardIiEOT_RNSt16remove_referenceIS0_E4typeE,"axG",@progbits,_ZSt7forwardIiEOT_RNSt16remove_referenceIS0_E4typeE,comdat
	.weak	_ZSt7forwardIiEOT_RNSt16remove_referenceIS0_E4typeE
	.type	_ZSt7forwardIiEOT_RNSt16remove_referenceIS0_E4typeE, @function
_ZSt7forwardIiEOT_RNSt16remove_referenceIS0_E4typeE:
.LFB7663:
	.cfi_startproc
	pushq	%rbp
	.cfi_def_cfa_offset 16
	.cfi_offset 6, -16
	movq	%rsp, %rbp
	.cfi_def_cfa_register 6
	movq	%rdi, -8(%rbp)
	movq	-8(%rbp), %rax
	popq	%rbp
	.cfi_def_cfa 7, 8
	ret
	.cfi_endproc
.LFE7663:
	.size	_ZSt7forwardIiEOT_RNSt16remove_referenceIS0_E4typeE, .-_ZSt7forwardIiEOT_RNSt16remove_referenceIS0_E4typeE
	.section	.text._ZN11SymbolTable6insertENSt7__cxx1112basic_stringIcSt11char_traitsIcESaIcEEEP16SymbolTableEntry,"axG",@progbits,_ZN11SymbolTable6insertENSt7__cxx1112basic_stringIcSt11char_traitsIcESaIcEEEP16SymbolTableEntry,comdat
	.align 2
	.weak	_ZN11SymbolTable6insertENSt7__cxx1112basic_stringIcSt11char_traitsIcESaIcEEEP16SymbolTableEntry
	.type	_ZN11SymbolTable6insertENSt7__cxx1112basic_stringIcSt11char_traitsIcESaIcEEEP16SymbolTableEntry, @function
_ZN11SymbolTable6insertENSt7__cxx1112basic_stringIcSt11char_traitsIcESaIcEEEP16SymbolTableEntry:
.LFB8175:
	.cfi_startproc
	pushq	%rbp
	.cfi_def_cfa_offset 16
	.cfi_offset 6, -16
	movq	%rsp, %rbp
	.cfi_def_cfa_register 6
	subq	$32, %rsp
	movq	%rdi, -8(%rbp)
	movq	%rsi, -16(%rbp)
	movq	%rdx, -24(%rbp)
	movq	-8(%rbp), %rax
	movq	-16(%rbp), %rdx
	movq	%rdx, %rsi
	movq	%rax, %rdi
	call	_ZNSt13unordered_mapINSt7__cxx1112basic_stringIcSt11char_traitsIcESaIcEEEP16SymbolTableEntrySt4hashIS5_ESt8equal_toIS5_ESaISt4pairIKS5_S7_EEEixERSD_
	movq	%rax, %rdx
	movq	-24(%rbp), %rax
	movq	%rax, (%rdx)
	movq	-24(%rbp), %rax
	leaq	16(%rax), %rdx
	movq	-16(%rbp), %rax
	movq	%rax, %rsi
	movq	%rdx, %rdi
	call	_ZNSt7__cxx1112basic_stringIcSt11char_traitsIcESaIcEEaSERKS4_@PLT
	movq	-24(%rbp), %rax
	movl	$6, 8(%rax)
	nop
	leave
	.cfi_def_cfa 7, 8
	ret
	.cfi_endproc
.LFE8175:
	.size	_ZN11SymbolTable6insertENSt7__cxx1112basic_stringIcSt11char_traitsIcESaIcEEEP16SymbolTableEntry, .-_ZN11SymbolTable6insertENSt7__cxx1112basic_stringIcSt11char_traitsIcESaIcEEEP16SymbolTableEntry
	.section	.text._ZN11SymbolTable6lookupENSt7__cxx1112basic_stringIcSt11char_traitsIcESaIcEEE,"axG",@progbits,_ZN11SymbolTable6lookupENSt7__cxx1112basic_stringIcSt11char_traitsIcESaIcEEE,comdat
	.align 2
	.weak	_ZN11SymbolTable6lookupENSt7__cxx1112basic_stringIcSt11char_traitsIcESaIcEEE
	.type	_ZN11SymbolTable6lookupENSt7__cxx1112basic_stringIcSt11char_traitsIcESaIcEEE, @function
_ZN11SymbolTable6lookupENSt7__cxx1112basic_stringIcSt11char_traitsIcESaIcEEE:
.LFB8176:
	.cfi_startproc
	pushq	%rbp
	.cfi_def_cfa_offset 16
	.cfi_offset 6, -16
	movq	%rsp, %rbp
	.cfi_def_cfa_register 6
	subq	$48, %rsp
	movq	%rdi, -40(%rbp)
	movq	%rsi, -48(%rbp)
	movq	%fs:40, %rax
	movq	%rax, -8(%rbp)
	xorl	%eax, %eax
	movq	-40(%rbp), %rax
	movq	-48(%rbp), %rdx
	movq	%rdx, %rsi
	movq	%rax, %rdi
	call	_ZNSt13unordered_mapINSt7__cxx1112basic_stringIcSt11char_traitsIcESaIcEEEP16SymbolTableEntrySt4hashIS5_ESt8equal_toIS5_ESaISt4pairIKS5_S7_EEE4findERSD_
	movq	%rax, -24(%rbp)
	movq	-40(%rbp), %rax
	movq	%rax, %rdi
	call	_ZNSt13unordered_mapINSt7__cxx1112basic_stringIcSt11char_traitsIcESaIcEEEP16SymbolTableEntrySt4hashIS5_ESt8equal_toIS5_ESaISt4pairIKS5_S7_EEE3endEv
	movq	%rax, -16(%rbp)
	leaq	-16(%rbp), %rdx
	leaq	-24(%rbp), %rax
	movq	%rdx, %rsi
	movq	%rax, %rdi
	call	_ZNSt8__detailneISt4pairIKNSt7__cxx1112basic_stringIcSt11char_traitsIcESaIcEEEP16SymbolTableEntryELb1EEEbRKNS_19_Node_iterator_baseIT_XT0_EEESG_
	testb	%al, %al
	je	.L30
	leaq	-24(%rbp), %rax
	movq	%rax, %rdi
	call	_ZNKSt8__detail14_Node_iteratorISt4pairIKNSt7__cxx1112basic_stringIcSt11char_traitsIcESaIcEEEP16SymbolTableEntryELb0ELb1EEptEv
	movq	32(%rax), %rax
	jmp	.L32
.L30:
	movl	$0, %eax
.L32:
	movq	-8(%rbp), %rcx
	xorq	%fs:40, %rcx
	je	.L33
	call	__stack_chk_fail@PLT
.L33:
	leave
	.cfi_def_cfa 7, 8
	ret
	.cfi_endproc
.LFE8176:
	.size	_ZN11SymbolTable6lookupENSt7__cxx1112basic_stringIcSt11char_traitsIcESaIcEEE, .-_ZN11SymbolTable6lookupENSt7__cxx1112basic_stringIcSt11char_traitsIcESaIcEEE
	.section	.text._ZN11SymbolTable20initIsLiveAndNextUseEv,"axG",@progbits,_ZN11SymbolTable20initIsLiveAndNextUseEv,comdat
	.align 2
	.weak	_ZN11SymbolTable20initIsLiveAndNextUseEv
	.type	_ZN11SymbolTable20initIsLiveAndNextUseEv, @function
_ZN11SymbolTable20initIsLiveAndNextUseEv:
.LFB8177:
	.cfi_startproc
	pushq	%rbp
	.cfi_def_cfa_offset 16
	.cfi_offset 6, -16
	movq	%rsp, %rbp
	.cfi_def_cfa_register 6
	subq	$48, %rsp
	movq	%rdi, -40(%rbp)
	movq	%fs:40, %rax
	movq	%rax, -8(%rbp)
	xorl	%eax, %eax
	movq	-40(%rbp), %rax
	movq	%rax, %rdi
	call	_ZNSt13unordered_mapINSt7__cxx1112basic_stringIcSt11char_traitsIcESaIcEEEP16SymbolTableEntrySt4hashIS5_ESt8equal_toIS5_ESaISt4pairIKS5_S7_EEE5beginEv
	movq	%rax, -24(%rbp)
.L36:
	movq	-40(%rbp), %rax
	movq	%rax, %rdi
	call	_ZNSt13unordered_mapINSt7__cxx1112basic_stringIcSt11char_traitsIcESaIcEEEP16SymbolTableEntrySt4hashIS5_ESt8equal_toIS5_ESaISt4pairIKS5_S7_EEE3endEv
	movq	%rax, -16(%rbp)
	leaq	-16(%rbp), %rdx
	leaq	-24(%rbp), %rax
	movq	%rdx, %rsi
	movq	%rax, %rdi
	call	_ZNSt8__detailneISt4pairIKNSt7__cxx1112basic_stringIcSt11char_traitsIcESaIcEEEP16SymbolTableEntryELb1EEEbRKNS_19_Node_iterator_baseIT_XT0_EEESG_
	testb	%al, %al
	je	.L38
	leaq	-24(%rbp), %rax
	movq	%rax, %rdi
	call	_ZNKSt8__detail14_Node_iteratorISt4pairIKNSt7__cxx1112basic_stringIcSt11char_traitsIcESaIcEEEP16SymbolTableEntryELb0ELb1EEptEv
	movq	32(%rax), %rax
	movb	$1, 52(%rax)
	leaq	-24(%rbp), %rax
	movq	%rax, %rdi
	call	_ZNKSt8__detail14_Node_iteratorISt4pairIKNSt7__cxx1112basic_stringIcSt11char_traitsIcESaIcEEEP16SymbolTableEntryELb0ELb1EEptEv
	movq	32(%rax), %rax
	movl	$-1, 56(%rax)
	leaq	-24(%rbp), %rax
	movq	%rax, %rdi
	call	_ZNSt8__detail14_Node_iteratorISt4pairIKNSt7__cxx1112basic_stringIcSt11char_traitsIcESaIcEEEP16SymbolTableEntryELb0ELb1EEppEv
	jmp	.L36
.L38:
	nop
	movq	-8(%rbp), %rax
	xorq	%fs:40, %rax
	je	.L37
	call	__stack_chk_fail@PLT
.L37:
	leave
	.cfi_def_cfa 7, 8
	ret
	.cfi_endproc
.LFE8177:
	.size	_ZN11SymbolTable20initIsLiveAndNextUseEv, .-_ZN11SymbolTable20initIsLiveAndNextUseEv
	.section	.text._ZN11SymbolTable14printTableIntsB5cxx11Ev,"axG",@progbits,_ZN11SymbolTable14printTableIntsB5cxx11Ev,comdat
	.align 2
	.weak	_ZN11SymbolTable14printTableIntsB5cxx11Ev
	.type	_ZN11SymbolTable14printTableIntsB5cxx11Ev, @function
_ZN11SymbolTable14printTableIntsB5cxx11Ev:
.LFB8178:
	.cfi_startproc
	.cfi_personality 0x9b,DW.ref.__gxx_personality_v0
	.cfi_lsda 0x1b,.LLSDA8178
	pushq	%rbp
	.cfi_def_cfa_offset 16
	.cfi_offset 6, -16
	movq	%rsp, %rbp
	.cfi_def_cfa_register 6
	pushq	%rbx
	subq	$56, %rsp
	.cfi_offset 3, -24
	movq	%rdi, -56(%rbp)
	movq	%rsi, -64(%rbp)
	movq	%fs:40, %rax
	movq	%rax, -24(%rbp)
	xorl	%eax, %eax
	movq	-56(%rbp), %rax
	movq	%rax, %rdi
	call	_ZNSt6vectorINSt7__cxx1112basic_stringIcSt11char_traitsIcESaIcEEESaIS5_EEC1Ev
	movq	-64(%rbp), %rax
	movq	%rax, %rdi
	call	_ZNSt13unordered_mapINSt7__cxx1112basic_stringIcSt11char_traitsIcESaIcEEEP16SymbolTableEntrySt4hashIS5_ESt8equal_toIS5_ESaISt4pairIKS5_S7_EEE5beginEv
	movq	%rax, -40(%rbp)
.L42:
	movq	-64(%rbp), %rax
	movq	%rax, %rdi
	call	_ZNSt13unordered_mapINSt7__cxx1112basic_stringIcSt11char_traitsIcESaIcEEEP16SymbolTableEntrySt4hashIS5_ESt8equal_toIS5_ESaISt4pairIKS5_S7_EEE3endEv
	movq	%rax, -32(%rbp)
	leaq	-32(%rbp), %rdx
	leaq	-40(%rbp), %rax
	movq	%rdx, %rsi
	movq	%rax, %rdi
	call	_ZNSt8__detailneISt4pairIKNSt7__cxx1112basic_stringIcSt11char_traitsIcESaIcEEEP16SymbolTableEntryELb1EEEbRKNS_19_Node_iterator_baseIT_XT0_EEESG_
	testb	%al, %al
	je	.L47
	leaq	-40(%rbp), %rax
	movq	%rax, %rdi
	call	_ZNKSt8__detail14_Node_iteratorISt4pairIKNSt7__cxx1112basic_stringIcSt11char_traitsIcESaIcEEEP16SymbolTableEntryELb0ELb1EEptEv
	movq	32(%rax), %rax
	movl	(%rax), %eax
	testl	%eax, %eax
	sete	%al
	testb	%al, %al
	je	.L41
	leaq	-40(%rbp), %rax
	movq	%rax, %rdi
	call	_ZNKSt8__detail14_Node_iteratorISt4pairIKNSt7__cxx1112basic_stringIcSt11char_traitsIcESaIcEEEP16SymbolTableEntryELb0ELb1EEptEv
	movq	%rax, %rdx
	movq	-56(%rbp), %rax
	movq	%rdx, %rsi
	movq	%rax, %rdi
.LEHB0:
	call	_ZNSt6vectorINSt7__cxx1112basic_stringIcSt11char_traitsIcESaIcEEESaIS5_EE9push_backERKS5_
.LEHE0:
.L41:
	leaq	-40(%rbp), %rax
	movq	%rax, %rdi
	call	_ZNSt8__detail14_Node_iteratorISt4pairIKNSt7__cxx1112basic_stringIcSt11char_traitsIcESaIcEEEP16SymbolTableEntryELb0ELb1EEppEv
	jmp	.L42
.L46:
	movq	%rax, %rbx
	movq	-56(%rbp), %rax
	movq	%rax, %rdi
	call	_ZNSt6vectorINSt7__cxx1112basic_stringIcSt11char_traitsIcESaIcEEESaIS5_EED1Ev
	movq	%rbx, %rax
	movq	%rax, %rdi
.LEHB1:
	call	_Unwind_Resume@PLT
.LEHE1:
.L47:
	nop
	movq	-56(%rbp), %rax
	movq	-24(%rbp), %rcx
	xorq	%fs:40, %rcx
	je	.L45
	call	__stack_chk_fail@PLT
.L45:
	addq	$56, %rsp
	popq	%rbx
	popq	%rbp
	.cfi_def_cfa 7, 8
	ret
	.cfi_endproc
.LFE8178:
	.section	.gcc_except_table._ZN11SymbolTable14printTableIntsB5cxx11Ev,"aG",@progbits,_ZN11SymbolTable14printTableIntsB5cxx11Ev,comdat
.LLSDA8178:
	.byte	0xff
	.byte	0xff
	.byte	0x1
	.uleb128 .LLSDACSE8178-.LLSDACSB8178
.LLSDACSB8178:
	.uleb128 .LEHB0-.LFB8178
	.uleb128 .LEHE0-.LEHB0
	.uleb128 .L46-.LFB8178
	.uleb128 0
	.uleb128 .LEHB1-.LFB8178
	.uleb128 .LEHE1-.LEHB1
	.uleb128 0
	.uleb128 0
.LLSDACSE8178:
	.section	.text._ZN11SymbolTable14printTableIntsB5cxx11Ev,"axG",@progbits,_ZN11SymbolTable14printTableIntsB5cxx11Ev,comdat
	.size	_ZN11SymbolTable14printTableIntsB5cxx11Ev, .-_ZN11SymbolTable14printTableIntsB5cxx11Ev
	.section	.text._ZNSt8_Rb_treeI8RegisterSt4pairIKS0_P16SymbolTableEntryESt10_Select1stIS5_ESt4lessIS0_ESaIS5_EE13_Rb_tree_implIS9_Lb1EEC2Ev,"axG",@progbits,_ZNSt8_Rb_treeI8RegisterSt4pairIKS0_P16SymbolTableEntryESt10_Select1stIS5_ESt4lessIS0_ESaIS5_EE13_Rb_tree_implIS9_Lb1EEC5Ev,comdat
	.align 2
	.weak	_ZNSt8_Rb_treeI8RegisterSt4pairIKS0_P16SymbolTableEntryESt10_Select1stIS5_ESt4lessIS0_ESaIS5_EE13_Rb_tree_implIS9_Lb1EEC2Ev
	.type	_ZNSt8_Rb_treeI8RegisterSt4pairIKS0_P16SymbolTableEntryESt10_Select1stIS5_ESt4lessIS0_ESaIS5_EE13_Rb_tree_implIS9_Lb1EEC2Ev, @function
_ZNSt8_Rb_treeI8RegisterSt4pairIKS0_P16SymbolTableEntryESt10_Select1stIS5_ESt4lessIS0_ESaIS5_EE13_Rb_tree_implIS9_Lb1EEC2Ev:
.LFB8183:
	.cfi_startproc
	pushq	%rbp
	.cfi_def_cfa_offset 16
	.cfi_offset 6, -16
	movq	%rsp, %rbp
	.cfi_def_cfa_register 6
	subq	$16, %rsp
	movq	%rdi, -8(%rbp)
	movq	-8(%rbp), %rax
	movq	%rax, %rdi
	call	_ZNSaISt13_Rb_tree_nodeISt4pairIK8RegisterP16SymbolTableEntryEEEC2Ev
	movq	-8(%rbp), %rax
	movq	%rax, %rdi
	call	_ZNSt20_Rb_tree_key_compareISt4lessI8RegisterEEC2Ev
	movq	-8(%rbp), %rax
	addq	$8, %rax
	movq	%rax, %rdi
	call	_ZNSt15_Rb_tree_headerC2Ev
	nop
	leave
	.cfi_def_cfa 7, 8
	ret
	.cfi_endproc
.LFE8183:
	.size	_ZNSt8_Rb_treeI8RegisterSt4pairIKS0_P16SymbolTableEntryESt10_Select1stIS5_ESt4lessIS0_ESaIS5_EE13_Rb_tree_implIS9_Lb1EEC2Ev, .-_ZNSt8_Rb_treeI8RegisterSt4pairIKS0_P16SymbolTableEntryESt10_Select1stIS5_ESt4lessIS0_ESaIS5_EE13_Rb_tree_implIS9_Lb1EEC2Ev
	.weak	_ZNSt8_Rb_treeI8RegisterSt4pairIKS0_P16SymbolTableEntryESt10_Select1stIS5_ESt4lessIS0_ESaIS5_EE13_Rb_tree_implIS9_Lb1EEC1Ev
	.set	_ZNSt8_Rb_treeI8RegisterSt4pairIKS0_P16SymbolTableEntryESt10_Select1stIS5_ESt4lessIS0_ESaIS5_EE13_Rb_tree_implIS9_Lb1EEC1Ev,_ZNSt8_Rb_treeI8RegisterSt4pairIKS0_P16SymbolTableEntryESt10_Select1stIS5_ESt4lessIS0_ESaIS5_EE13_Rb_tree_implIS9_Lb1EEC2Ev
	.section	.text._ZNSt8_Rb_treeI8RegisterSt4pairIKS0_P16SymbolTableEntryESt10_Select1stIS5_ESt4lessIS0_ESaIS5_EE13_Rb_tree_implIS9_Lb1EED2Ev,"axG",@progbits,_ZNSt8_Rb_treeI8RegisterSt4pairIKS0_P16SymbolTableEntryESt10_Select1stIS5_ESt4lessIS0_ESaIS5_EE13_Rb_tree_implIS9_Lb1EED5Ev,comdat
	.align 2
	.weak	_ZNSt8_Rb_treeI8RegisterSt4pairIKS0_P16SymbolTableEntryESt10_Select1stIS5_ESt4lessIS0_ESaIS5_EE13_Rb_tree_implIS9_Lb1EED2Ev
	.type	_ZNSt8_Rb_treeI8RegisterSt4pairIKS0_P16SymbolTableEntryESt10_Select1stIS5_ESt4lessIS0_ESaIS5_EE13_Rb_tree_implIS9_Lb1EED2Ev, @function
_ZNSt8_Rb_treeI8RegisterSt4pairIKS0_P16SymbolTableEntryESt10_Select1stIS5_ESt4lessIS0_ESaIS5_EE13_Rb_tree_implIS9_Lb1EED2Ev:
.LFB8186:
	.cfi_startproc
	pushq	%rbp
	.cfi_def_cfa_offset 16
	.cfi_offset 6, -16
	movq	%rsp, %rbp
	.cfi_def_cfa_register 6
	subq	$16, %rsp
	movq	%rdi, -8(%rbp)
	movq	-8(%rbp), %rax
	movq	%rax, %rdi
	call	_ZNSaISt13_Rb_tree_nodeISt4pairIK8RegisterP16SymbolTableEntryEEED2Ev
	nop
	leave
	.cfi_def_cfa 7, 8
	ret
	.cfi_endproc
.LFE8186:
	.size	_ZNSt8_Rb_treeI8RegisterSt4pairIKS0_P16SymbolTableEntryESt10_Select1stIS5_ESt4lessIS0_ESaIS5_EE13_Rb_tree_implIS9_Lb1EED2Ev, .-_ZNSt8_Rb_treeI8RegisterSt4pairIKS0_P16SymbolTableEntryESt10_Select1stIS5_ESt4lessIS0_ESaIS5_EE13_Rb_tree_implIS9_Lb1EED2Ev
	.weak	_ZNSt8_Rb_treeI8RegisterSt4pairIKS0_P16SymbolTableEntryESt10_Select1stIS5_ESt4lessIS0_ESaIS5_EE13_Rb_tree_implIS9_Lb1EED1Ev
	.set	_ZNSt8_Rb_treeI8RegisterSt4pairIKS0_P16SymbolTableEntryESt10_Select1stIS5_ESt4lessIS0_ESaIS5_EE13_Rb_tree_implIS9_Lb1EED1Ev,_ZNSt8_Rb_treeI8RegisterSt4pairIKS0_P16SymbolTableEntryESt10_Select1stIS5_ESt4lessIS0_ESaIS5_EE13_Rb_tree_implIS9_Lb1EED2Ev
	.section	.text._ZNSt8_Rb_treeI8RegisterSt4pairIKS0_P16SymbolTableEntryESt10_Select1stIS5_ESt4lessIS0_ESaIS5_EEC2Ev,"axG",@progbits,_ZNSt8_Rb_treeI8RegisterSt4pairIKS0_P16SymbolTableEntryESt10_Select1stIS5_ESt4lessIS0_ESaIS5_EEC5Ev,comdat
	.align 2
	.weak	_ZNSt8_Rb_treeI8RegisterSt4pairIKS0_P16SymbolTableEntryESt10_Select1stIS5_ESt4lessIS0_ESaIS5_EEC2Ev
	.type	_ZNSt8_Rb_treeI8RegisterSt4pairIKS0_P16SymbolTableEntryESt10_Select1stIS5_ESt4lessIS0_ESaIS5_EEC2Ev, @function
_ZNSt8_Rb_treeI8RegisterSt4pairIKS0_P16SymbolTableEntryESt10_Select1stIS5_ESt4lessIS0_ESaIS5_EEC2Ev:
.LFB8188:
	.cfi_startproc
	pushq	%rbp
	.cfi_def_cfa_offset 16
	.cfi_offset 6, -16
	movq	%rsp, %rbp
	.cfi_def_cfa_register 6
	subq	$16, %rsp
	movq	%rdi, -8(%rbp)
	movq	-8(%rbp), %rax
	movq	%rax, %rdi
	call	_ZNSt8_Rb_treeI8RegisterSt4pairIKS0_P16SymbolTableEntryESt10_Select1stIS5_ESt4lessIS0_ESaIS5_EE13_Rb_tree_implIS9_Lb1EEC1Ev
	nop
	leave
	.cfi_def_cfa 7, 8
	ret
	.cfi_endproc
.LFE8188:
	.size	_ZNSt8_Rb_treeI8RegisterSt4pairIKS0_P16SymbolTableEntryESt10_Select1stIS5_ESt4lessIS0_ESaIS5_EEC2Ev, .-_ZNSt8_Rb_treeI8RegisterSt4pairIKS0_P16SymbolTableEntryESt10_Select1stIS5_ESt4lessIS0_ESaIS5_EEC2Ev
	.weak	_ZNSt8_Rb_treeI8RegisterSt4pairIKS0_P16SymbolTableEntryESt10_Select1stIS5_ESt4lessIS0_ESaIS5_EEC1Ev
	.set	_ZNSt8_Rb_treeI8RegisterSt4pairIKS0_P16SymbolTableEntryESt10_Select1stIS5_ESt4lessIS0_ESaIS5_EEC1Ev,_ZNSt8_Rb_treeI8RegisterSt4pairIKS0_P16SymbolTableEntryESt10_Select1stIS5_ESt4lessIS0_ESaIS5_EEC2Ev
	.section	.text._ZNSt3mapI8RegisterP16SymbolTableEntrySt4lessIS0_ESaISt4pairIKS0_S2_EEEC2Ev,"axG",@progbits,_ZNSt3mapI8RegisterP16SymbolTableEntrySt4lessIS0_ESaISt4pairIKS0_S2_EEEC5Ev,comdat
	.align 2
	.weak	_ZNSt3mapI8RegisterP16SymbolTableEntrySt4lessIS0_ESaISt4pairIKS0_S2_EEEC2Ev
	.type	_ZNSt3mapI8RegisterP16SymbolTableEntrySt4lessIS0_ESaISt4pairIKS0_S2_EEEC2Ev, @function
_ZNSt3mapI8RegisterP16SymbolTableEntrySt4lessIS0_ESaISt4pairIKS0_S2_EEEC2Ev:
.LFB8190:
	.cfi_startproc
	pushq	%rbp
	.cfi_def_cfa_offset 16
	.cfi_offset 6, -16
	movq	%rsp, %rbp
	.cfi_def_cfa_register 6
	subq	$16, %rsp
	movq	%rdi, -8(%rbp)
	movq	-8(%rbp), %rax
	movq	%rax, %rdi
	call	_ZNSt8_Rb_treeI8RegisterSt4pairIKS0_P16SymbolTableEntryESt10_Select1stIS5_ESt4lessIS0_ESaIS5_EEC1Ev
	nop
	leave
	.cfi_def_cfa 7, 8
	ret
	.cfi_endproc
.LFE8190:
	.size	_ZNSt3mapI8RegisterP16SymbolTableEntrySt4lessIS0_ESaISt4pairIKS0_S2_EEEC2Ev, .-_ZNSt3mapI8RegisterP16SymbolTableEntrySt4lessIS0_ESaISt4pairIKS0_S2_EEEC2Ev
	.weak	_ZNSt3mapI8RegisterP16SymbolTableEntrySt4lessIS0_ESaISt4pairIKS0_S2_EEEC1Ev
	.set	_ZNSt3mapI8RegisterP16SymbolTableEntrySt4lessIS0_ESaISt4pairIKS0_S2_EEEC1Ev,_ZNSt3mapI8RegisterP16SymbolTableEntrySt4lessIS0_ESaISt4pairIKS0_S2_EEEC2Ev
	.section	.text._ZNSt3mapI8RegisterP16SymbolTableEntrySt4lessIS0_ESaISt4pairIKS0_S2_EEED2Ev,"axG",@progbits,_ZNSt3mapI8RegisterP16SymbolTableEntrySt4lessIS0_ESaISt4pairIKS0_S2_EEED5Ev,comdat
	.align 2
	.weak	_ZNSt3mapI8RegisterP16SymbolTableEntrySt4lessIS0_ESaISt4pairIKS0_S2_EEED2Ev
	.type	_ZNSt3mapI8RegisterP16SymbolTableEntrySt4lessIS0_ESaISt4pairIKS0_S2_EEED2Ev, @function
_ZNSt3mapI8RegisterP16SymbolTableEntrySt4lessIS0_ESaISt4pairIKS0_S2_EEED2Ev:
.LFB8193:
	.cfi_startproc
	pushq	%rbp
	.cfi_def_cfa_offset 16
	.cfi_offset 6, -16
	movq	%rsp, %rbp
	.cfi_def_cfa_register 6
	subq	$16, %rsp
	movq	%rdi, -8(%rbp)
	movq	-8(%rbp), %rax
	movq	%rax, %rdi
	call	_ZNSt8_Rb_treeI8RegisterSt4pairIKS0_P16SymbolTableEntryESt10_Select1stIS5_ESt4lessIS0_ESaIS5_EED1Ev
	nop
	leave
	.cfi_def_cfa 7, 8
	ret
	.cfi_endproc
.LFE8193:
	.size	_ZNSt3mapI8RegisterP16SymbolTableEntrySt4lessIS0_ESaISt4pairIKS0_S2_EEED2Ev, .-_ZNSt3mapI8RegisterP16SymbolTableEntrySt4lessIS0_ESaISt4pairIKS0_S2_EEED2Ev
	.weak	_ZNSt3mapI8RegisterP16SymbolTableEntrySt4lessIS0_ESaISt4pairIKS0_S2_EEED1Ev
	.set	_ZNSt3mapI8RegisterP16SymbolTableEntrySt4lessIS0_ESaISt4pairIKS0_S2_EEED1Ev,_ZNSt3mapI8RegisterP16SymbolTableEntrySt4lessIS0_ESaISt4pairIKS0_S2_EEED2Ev
	.section	.text._ZN18RegisterDescriptorC2Ev,"axG",@progbits,_ZN18RegisterDescriptorC5Ev,comdat
	.align 2
	.weak	_ZN18RegisterDescriptorC2Ev
	.type	_ZN18RegisterDescriptorC2Ev, @function
_ZN18RegisterDescriptorC2Ev:
.LFB8195:
	.cfi_startproc
	.cfi_personality 0x9b,DW.ref.__gxx_personality_v0
	.cfi_lsda 0x1b,.LLSDA8195
	pushq	%rbp
	.cfi_def_cfa_offset 16
	.cfi_offset 6, -16
	movq	%rsp, %rbp
	.cfi_def_cfa_register 6
	pushq	%rbx
	subq	$24, %rsp
	.cfi_offset 3, -24
	movq	%rdi, -24(%rbp)
	movq	-24(%rbp), %rax
	movq	%rax, %rdi
	call	_ZNSt3mapI8RegisterP16SymbolTableEntrySt4lessIS0_ESaISt4pairIKS0_S2_EEEC1Ev
	movq	-24(%rbp), %rax
	addq	$48, %rax
	movq	%rax, %rdi
	call	_ZNSt17_Rb_tree_iteratorISt4pairIK8RegisterP16SymbolTableEntryEEC1Ev
	movq	-24(%rbp), %rax
	movl	$0, %edx
	movl	$0, %esi
	movq	%rax, %rdi
.LEHB2:
	call	_ZN18RegisterDescriptor6modifyE8RegisterP16SymbolTableEntry
	movq	-24(%rbp), %rax
	movl	$0, %edx
	movl	$1, %esi
	movq	%rax, %rdi
	call	_ZN18RegisterDescriptor6modifyE8RegisterP16SymbolTableEntry
	movq	-24(%rbp), %rax
	movl	$0, %edx
	movl	$2, %esi
	movq	%rax, %rdi
	call	_ZN18RegisterDescriptor6modifyE8RegisterP16SymbolTableEntry
	movq	-24(%rbp), %rax
	movl	$0, %edx
	movl	$3, %esi
	movq	%rax, %rdi
	call	_ZN18RegisterDescriptor6modifyE8RegisterP16SymbolTableEntry
	movq	-24(%rbp), %rax
	movl	$0, %edx
	movl	$4, %esi
	movq	%rax, %rdi
	call	_ZN18RegisterDescriptor6modifyE8RegisterP16SymbolTableEntry
	movq	-24(%rbp), %rax
	movl	$0, %edx
	movl	$5, %esi
	movq	%rax, %rdi
	call	_ZN18RegisterDescriptor6modifyE8RegisterP16SymbolTableEntry
	movq	-24(%rbp), %rax
	movl	$0, %edx
	movl	$6, %esi
	movq	%rax, %rdi
	call	_ZN18RegisterDescriptor6modifyE8RegisterP16SymbolTableEntry
.LEHE2:
	jmp	.L56
.L55:
	movq	%rax, %rbx
	movq	-24(%rbp), %rax
	movq	%rax, %rdi
	call	_ZNSt3mapI8RegisterP16SymbolTableEntrySt4lessIS0_ESaISt4pairIKS0_S2_EEED1Ev
	movq	%rbx, %rax
	movq	%rax, %rdi
.LEHB3:
	call	_Unwind_Resume@PLT
.LEHE3:
.L56:
	addq	$24, %rsp
	popq	%rbx
	popq	%rbp
	.cfi_def_cfa 7, 8
	ret
	.cfi_endproc
.LFE8195:
	.section	.gcc_except_table._ZN18RegisterDescriptorC2Ev,"aG",@progbits,_ZN18RegisterDescriptorC5Ev,comdat
.LLSDA8195:
	.byte	0xff
	.byte	0xff
	.byte	0x1
	.uleb128 .LLSDACSE8195-.LLSDACSB8195
.LLSDACSB8195:
	.uleb128 .LEHB2-.LFB8195
	.uleb128 .LEHE2-.LEHB2
	.uleb128 .L55-.LFB8195
	.uleb128 0
	.uleb128 .LEHB3-.LFB8195
	.uleb128 .LEHE3-.LEHB3
	.uleb128 0
	.uleb128 0
.LLSDACSE8195:
	.section	.text._ZN18RegisterDescriptorC2Ev,"axG",@progbits,_ZN18RegisterDescriptorC5Ev,comdat
	.size	_ZN18RegisterDescriptorC2Ev, .-_ZN18RegisterDescriptorC2Ev
	.weak	_ZN18RegisterDescriptorC1Ev
	.set	_ZN18RegisterDescriptorC1Ev,_ZN18RegisterDescriptorC2Ev
	.section	.text._ZN18RegisterDescriptor6lookupE8Register,"axG",@progbits,_ZN18RegisterDescriptor6lookupE8Register,comdat
	.align 2
	.weak	_ZN18RegisterDescriptor6lookupE8Register
	.type	_ZN18RegisterDescriptor6lookupE8Register, @function
_ZN18RegisterDescriptor6lookupE8Register:
.LFB8197:
	.cfi_startproc
	pushq	%rbp
	.cfi_def_cfa_offset 16
	.cfi_offset 6, -16
	movq	%rsp, %rbp
	.cfi_def_cfa_register 6
	pushq	%rbx
	subq	$40, %rsp
	.cfi_offset 3, -24
	movq	%rdi, -40(%rbp)
	movl	%esi, -44(%rbp)
	movq	%fs:40, %rax
	movq	%rax, -24(%rbp)
	xorl	%eax, %eax
	movq	-40(%rbp), %rax
	movq	-40(%rbp), %rbx
	leaq	-44(%rbp), %rdx
	movq	%rdx, %rsi
	movq	%rax, %rdi
	call	_ZNSt3mapI8RegisterP16SymbolTableEntrySt4lessIS0_ESaISt4pairIKS0_S2_EEE4findERS6_
	movq	%rax, 48(%rbx)
	movq	-40(%rbp), %rax
	movq	%rax, %rdi
	call	_ZNSt3mapI8RegisterP16SymbolTableEntrySt4lessIS0_ESaISt4pairIKS0_S2_EEE3endEv
	movq	%rax, -32(%rbp)
	movq	-40(%rbp), %rax
	leaq	48(%rax), %rdx
	leaq	-32(%rbp), %rax
	movq	%rax, %rsi
	movq	%rdx, %rdi
	call	_ZNKSt17_Rb_tree_iteratorISt4pairIK8RegisterP16SymbolTableEntryEEneERKS6_
	testb	%al, %al
	je	.L58
	movq	-40(%rbp), %rax
	addq	$48, %rax
	movq	%rax, %rdi
	call	_ZNKSt17_Rb_tree_iteratorISt4pairIK8RegisterP16SymbolTableEntryEEptEv
	movq	8(%rax), %rax
	jmp	.L59
.L58:
	movl	$0, %eax
.L59:
	movq	-24(%rbp), %rcx
	xorq	%fs:40, %rcx
	je	.L60
	call	__stack_chk_fail@PLT
.L60:
	addq	$40, %rsp
	popq	%rbx
	popq	%rbp
	.cfi_def_cfa 7, 8
	ret
	.cfi_endproc
.LFE8197:
	.size	_ZN18RegisterDescriptor6lookupE8Register, .-_ZN18RegisterDescriptor6lookupE8Register
	.section	.text._ZN18RegisterDescriptor6modifyE8RegisterP16SymbolTableEntry,"axG",@progbits,_ZN18RegisterDescriptor6modifyE8RegisterP16SymbolTableEntry,comdat
	.align 2
	.weak	_ZN18RegisterDescriptor6modifyE8RegisterP16SymbolTableEntry
	.type	_ZN18RegisterDescriptor6modifyE8RegisterP16SymbolTableEntry, @function
_ZN18RegisterDescriptor6modifyE8RegisterP16SymbolTableEntry:
.LFB8198:
	.cfi_startproc
	pushq	%rbp
	.cfi_def_cfa_offset 16
	.cfi_offset 6, -16
	movq	%rsp, %rbp
	.cfi_def_cfa_register 6
	subq	$32, %rsp
	movq	%rdi, -8(%rbp)
	movl	%esi, -12(%rbp)
	movq	%rdx, -24(%rbp)
	movq	-8(%rbp), %rax
	leaq	-12(%rbp), %rdx
	movq	%rdx, %rsi
	movq	%rax, %rdi
	call	_ZNSt3mapI8RegisterP16SymbolTableEntrySt4lessIS0_ESaISt4pairIKS0_S2_EEEixERS6_
	movq	%rax, %rdx
	movq	-24(%rbp), %rax
	movq	%rax, (%rdx)
	cmpq	$0, -24(%rbp)
	je	.L63
	movl	-12(%rbp), %edx
	movq	-24(%rbp), %rax
	movl	%edx, 8(%rax)
.L63:
	nop
	leave
	.cfi_def_cfa 7, 8
	ret
	.cfi_endproc
.LFE8198:
	.size	_ZN18RegisterDescriptor6modifyE8RegisterP16SymbolTableEntry, .-_ZN18RegisterDescriptor6modifyE8RegisterP16SymbolTableEntry
	.section	.text._ZN18RegisterDescriptor17findEmptyRegisterEv,"axG",@progbits,_ZN18RegisterDescriptor17findEmptyRegisterEv,comdat
	.align 2
	.weak	_ZN18RegisterDescriptor17findEmptyRegisterEv
	.type	_ZN18RegisterDescriptor17findEmptyRegisterEv, @function
_ZN18RegisterDescriptor17findEmptyRegisterEv:
.LFB8199:
	.cfi_startproc
	pushq	%rbp
	.cfi_def_cfa_offset 16
	.cfi_offset 6, -16
	movq	%rsp, %rbp
	.cfi_def_cfa_register 6
	pushq	%rbx
	subq	$40, %rsp
	.cfi_offset 3, -24
	movq	%rdi, -40(%rbp)
	movq	%fs:40, %rax
	movq	%rax, -24(%rbp)
	xorl	%eax, %eax
	movq	-40(%rbp), %rax
	movq	-40(%rbp), %rbx
	movq	%rax, %rdi
	call	_ZNSt3mapI8RegisterP16SymbolTableEntrySt4lessIS0_ESaISt4pairIKS0_S2_EEE5beginEv
	movq	%rax, 48(%rbx)
.L70:
	movq	-40(%rbp), %rax
	movq	%rax, %rdi
	call	_ZNSt3mapI8RegisterP16SymbolTableEntrySt4lessIS0_ESaISt4pairIKS0_S2_EEE3endEv
	movq	%rax, -32(%rbp)
	movq	-40(%rbp), %rax
	leaq	48(%rax), %rdx
	leaq	-32(%rbp), %rax
	movq	%rax, %rsi
	movq	%rdx, %rdi
	call	_ZNKSt17_Rb_tree_iteratorISt4pairIK8RegisterP16SymbolTableEntryEEneERKS6_
	testb	%al, %al
	je	.L65
	movq	-40(%rbp), %rax
	addq	$48, %rax
	movq	%rax, %rdi
	call	_ZNKSt17_Rb_tree_iteratorISt4pairIK8RegisterP16SymbolTableEntryEEptEv
	movq	8(%rax), %rax
	testq	%rax, %rax
	jne	.L66
	movq	-40(%rbp), %rax
	addq	$48, %rax
	movq	%rax, %rdi
	call	_ZNKSt17_Rb_tree_iteratorISt4pairIK8RegisterP16SymbolTableEntryEEptEv
	movl	(%rax), %eax
	cmpl	$6, %eax
	je	.L66
	movl	$1, %eax
	jmp	.L67
.L66:
	movl	$0, %eax
.L67:
	testb	%al, %al
	je	.L68
	movq	-40(%rbp), %rax
	addq	$48, %rax
	movq	%rax, %rdi
	call	_ZNKSt17_Rb_tree_iteratorISt4pairIK8RegisterP16SymbolTableEntryEEptEv
	movl	(%rax), %eax
	jmp	.L69
.L68:
	movq	-40(%rbp), %rax
	addq	$48, %rax
	movq	%rax, %rdi
	call	_ZNSt17_Rb_tree_iteratorISt4pairIK8RegisterP16SymbolTableEntryEEppEv
	jmp	.L70
.L65:
	movl	$6, %eax
.L69:
	movq	-24(%rbp), %rcx
	xorq	%fs:40, %rcx
	je	.L71
	call	__stack_chk_fail@PLT
.L71:
	addq	$40, %rsp
	popq	%rbx
	popq	%rbp
	.cfi_def_cfa 7, 8
	ret
	.cfi_endproc
.LFE8199:
	.size	_ZN18RegisterDescriptor17findEmptyRegisterEv, .-_ZN18RegisterDescriptor17findEmptyRegisterEv
	.section	.text._ZN18RegisterDescriptor26getFarthestNextUseRegisterEb,"axG",@progbits,_ZN18RegisterDescriptor26getFarthestNextUseRegisterEb,comdat
	.align 2
	.weak	_ZN18RegisterDescriptor26getFarthestNextUseRegisterEb
	.type	_ZN18RegisterDescriptor26getFarthestNextUseRegisterEb, @function
_ZN18RegisterDescriptor26getFarthestNextUseRegisterEb:
.LFB8200:
	.cfi_startproc
	pushq	%rbp
	.cfi_def_cfa_offset 16
	.cfi_offset 6, -16
	movq	%rsp, %rbp
	.cfi_def_cfa_register 6
	pushq	%rbx
	subq	$56, %rsp
	.cfi_offset 3, -24
	movq	%rdi, -56(%rbp)
	movl	%esi, %eax
	movb	%al, -60(%rbp)
	movq	%fs:40, %rax
	movq	%rax, -24(%rbp)
	xorl	%eax, %eax
	movl	$-1, -40(%rbp)
	movl	$6, -36(%rbp)
	movq	-56(%rbp), %rax
	movq	-56(%rbp), %rbx
	movq	%rax, %rdi
	call	_ZNSt3mapI8RegisterP16SymbolTableEntrySt4lessIS0_ESaISt4pairIKS0_S2_EEE5beginEv
	movq	%rax, 48(%rbx)
.L78:
	movq	-56(%rbp), %rax
	movq	%rax, %rdi
	call	_ZNSt3mapI8RegisterP16SymbolTableEntrySt4lessIS0_ESaISt4pairIKS0_S2_EEE3endEv
	movq	%rax, -32(%rbp)
	movq	-56(%rbp), %rax
	leaq	48(%rax), %rdx
	leaq	-32(%rbp), %rax
	movq	%rax, %rsi
	movq	%rdx, %rdi
	call	_ZNKSt17_Rb_tree_iteratorISt4pairIK8RegisterP16SymbolTableEntryEEneERKS6_
	testb	%al, %al
	je	.L73
	movq	-56(%rbp), %rax
	addq	$48, %rax
	movq	%rax, %rdi
	call	_ZNKSt17_Rb_tree_iteratorISt4pairIK8RegisterP16SymbolTableEntryEEptEv
	movq	8(%rax), %rax
	movl	56(%rax), %eax
	cmpl	%eax, -40(%rbp)
	setl	%al
	testb	%al, %al
	je	.L74
	cmpb	$0, -60(%rbp)
	je	.L75
	movq	-56(%rbp), %rax
	addq	$48, %rax
	movq	%rax, %rdi
	call	_ZNKSt17_Rb_tree_iteratorISt4pairIK8RegisterP16SymbolTableEntryEEptEv
	movl	(%rax), %eax
	testl	%eax, %eax
	jne	.L75
	movl	$1, %eax
	jmp	.L76
.L75:
	movl	$0, %eax
.L76:
	testb	%al, %al
	jne	.L81
	movq	-56(%rbp), %rax
	addq	$48, %rax
	movq	%rax, %rdi
	call	_ZNKSt17_Rb_tree_iteratorISt4pairIK8RegisterP16SymbolTableEntryEEptEv
	movq	8(%rax), %rax
	movl	56(%rax), %eax
	movl	%eax, -40(%rbp)
	movq	-56(%rbp), %rax
	addq	$48, %rax
	movq	%rax, %rdi
	call	_ZNKSt17_Rb_tree_iteratorISt4pairIK8RegisterP16SymbolTableEntryEEptEv
	movl	(%rax), %eax
	movl	%eax, -36(%rbp)
	jmp	.L74
.L81:
	nop
.L74:
	movq	-56(%rbp), %rax
	addq	$48, %rax
	movl	$0, %esi
	movq	%rax, %rdi
	call	_ZNSt17_Rb_tree_iteratorISt4pairIK8RegisterP16SymbolTableEntryEEppEi
	jmp	.L78
.L73:
	movl	-36(%rbp), %eax
	movq	-24(%rbp), %rcx
	xorq	%fs:40, %rcx
	je	.L80
	call	__stack_chk_fail@PLT
.L80:
	addq	$56, %rsp
	popq	%rbx
	popq	%rbp
	.cfi_def_cfa 7, 8
	ret
	.cfi_endproc
.LFE8200:
	.size	_ZN18RegisterDescriptor26getFarthestNextUseRegisterEb, .-_ZN18RegisterDescriptor26getFarthestNextUseRegisterEb
	.globl	basicBlocks
	.bss
	.align 32
	.type	basicBlocks, @object
	.size	basicBlocks, 2400
basicBlocks:
	.zero	2400
	.globl	noOfBasicBlocks
	.align 4
	.type	noOfBasicBlocks, @object
	.size	noOfBasicBlocks, 4
noOfBasicBlocks:
	.zero	4
	.section	.text._ZN14Instruction3ACC2Ev,"axG",@progbits,_ZN14Instruction3ACC5Ev,comdat
	.align 2
	.weak	_ZN14Instruction3ACC2Ev
	.type	_ZN14Instruction3ACC2Ev, @function
_ZN14Instruction3ACC2Ev:
.LFB8202:
	.cfi_startproc
	pushq	%rbp
	.cfi_def_cfa_offset 16
	.cfi_offset 6, -16
	movq	%rsp, %rbp
	.cfi_def_cfa_register 6
	subq	$16, %rsp
	movq	%rdi, -8(%rbp)
	movq	-8(%rbp), %rax
	addq	$8, %rax
	movq	%rax, %rdi
	call	_ZNSt7__cxx1112basic_stringIcSt11char_traitsIcESaIcEEC1Ev@PLT
	nop
	leave
	.cfi_def_cfa 7, 8
	ret
	.cfi_endproc
.LFE8202:
	.size	_ZN14Instruction3ACC2Ev, .-_ZN14Instruction3ACC2Ev
	.weak	_ZN14Instruction3ACC1Ev
	.set	_ZN14Instruction3ACC1Ev,_ZN14Instruction3ACC2Ev
	.section	.text._ZN14Instruction3ACD2Ev,"axG",@progbits,_ZN14Instruction3ACD5Ev,comdat
	.align 2
	.weak	_ZN14Instruction3ACD2Ev
	.type	_ZN14Instruction3ACD2Ev, @function
_ZN14Instruction3ACD2Ev:
.LFB8205:
	.cfi_startproc
	pushq	%rbp
	.cfi_def_cfa_offset 16
	.cfi_offset 6, -16
	movq	%rsp, %rbp
	.cfi_def_cfa_register 6
	subq	$16, %rsp
	movq	%rdi, -8(%rbp)
	movq	-8(%rbp), %rax
	addq	$8, %rax
	movq	%rax, %rdi
	call	_ZNSt7__cxx1112basic_stringIcSt11char_traitsIcESaIcEED1Ev@PLT
	nop
	leave
	.cfi_def_cfa 7, 8
	ret
	.cfi_endproc
.LFE8205:
	.size	_ZN14Instruction3ACD2Ev, .-_ZN14Instruction3ACD2Ev
	.weak	_ZN14Instruction3ACD1Ev
	.set	_ZN14Instruction3ACD1Ev,_ZN14Instruction3ACD2Ev
	.globl	instructions
	.bss
	.align 32
	.type	instructions, @object
	.size	instructions, 8800
instructions:
	.zero	8800
	.globl	noOfInstructions
	.align 4
	.type	noOfInstructions, @object
	.size	noOfInstructions, 4
noOfInstructions:
	.zero	4
	.section	.text._ZNSt8__detail21_Hashtable_ebo_helperILi0ESaINS_10_Hash_nodeISt4pairIKNSt7__cxx1112basic_stringIcSt11char_traitsIcESaIcEEEP16SymbolTableEntryELb1EEEELb1EEC2Ev,"axG",@progbits,_ZNSt8__detail21_Hashtable_ebo_helperILi0ESaINS_10_Hash_nodeISt4pairIKNSt7__cxx1112basic_stringIcSt11char_traitsIcESaIcEEEP16SymbolTableEntryELb1EEEELb1EEC5Ev,comdat
	.align 2
	.weak	_ZNSt8__detail21_Hashtable_ebo_helperILi0ESaINS_10_Hash_nodeISt4pairIKNSt7__cxx1112basic_stringIcSt11char_traitsIcESaIcEEEP16SymbolTableEntryELb1EEEELb1EEC2Ev
	.type	_ZNSt8__detail21_Hashtable_ebo_helperILi0ESaINS_10_Hash_nodeISt4pairIKNSt7__cxx1112basic_stringIcSt11char_traitsIcESaIcEEEP16SymbolTableEntryELb1EEEELb1EEC2Ev, @function
_ZNSt8__detail21_Hashtable_ebo_helperILi0ESaINS_10_Hash_nodeISt4pairIKNSt7__cxx1112basic_stringIcSt11char_traitsIcESaIcEEEP16SymbolTableEntryELb1EEEELb1EEC2Ev:
.LFB8212:
	.cfi_startproc
	pushq	%rbp
	.cfi_def_cfa_offset 16
	.cfi_offset 6, -16
	movq	%rsp, %rbp
	.cfi_def_cfa_register 6
	subq	$16, %rsp
	movq	%rdi, -8(%rbp)
	movq	-8(%rbp), %rax
	movq	%rax, %rdi
	call	_ZNSaINSt8__detail10_Hash_nodeISt4pairIKNSt7__cxx1112basic_stringIcSt11char_traitsIcESaIcEEEP16SymbolTableEntryELb1EEEEC2Ev
	nop
	leave
	.cfi_def_cfa 7, 8
	ret
	.cfi_endproc
.LFE8212:
	.size	_ZNSt8__detail21_Hashtable_ebo_helperILi0ESaINS_10_Hash_nodeISt4pairIKNSt7__cxx1112basic_stringIcSt11char_traitsIcESaIcEEEP16SymbolTableEntryELb1EEEELb1EEC2Ev, .-_ZNSt8__detail21_Hashtable_ebo_helperILi0ESaINS_10_Hash_nodeISt4pairIKNSt7__cxx1112basic_stringIcSt11char_traitsIcESaIcEEEP16SymbolTableEntryELb1EEEELb1EEC2Ev
	.weak	_ZNSt8__detail21_Hashtable_ebo_helperILi0ESaINS_10_Hash_nodeISt4pairIKNSt7__cxx1112basic_stringIcSt11char_traitsIcESaIcEEEP16SymbolTableEntryELb1EEEELb1EEC1Ev
	.set	_ZNSt8__detail21_Hashtable_ebo_helperILi0ESaINS_10_Hash_nodeISt4pairIKNSt7__cxx1112basic_stringIcSt11char_traitsIcESaIcEEEP16SymbolTableEntryELb1EEEELb1EEC1Ev,_ZNSt8__detail21_Hashtable_ebo_helperILi0ESaINS_10_Hash_nodeISt4pairIKNSt7__cxx1112basic_stringIcSt11char_traitsIcESaIcEEEP16SymbolTableEntryELb1EEEELb1EEC2Ev
	.section	.text._ZNSt8__detail21_Hashtable_ebo_helperILi0ESaINS_10_Hash_nodeISt4pairIKNSt7__cxx1112basic_stringIcSt11char_traitsIcESaIcEEEP16SymbolTableEntryELb1EEEELb1EED2Ev,"axG",@progbits,_ZNSt8__detail21_Hashtable_ebo_helperILi0ESaINS_10_Hash_nodeISt4pairIKNSt7__cxx1112basic_stringIcSt11char_traitsIcESaIcEEEP16SymbolTableEntryELb1EEEELb1EED5Ev,comdat
	.align 2
	.weak	_ZNSt8__detail21_Hashtable_ebo_helperILi0ESaINS_10_Hash_nodeISt4pairIKNSt7__cxx1112basic_stringIcSt11char_traitsIcESaIcEEEP16SymbolTableEntryELb1EEEELb1EED2Ev
	.type	_ZNSt8__detail21_Hashtable_ebo_helperILi0ESaINS_10_Hash_nodeISt4pairIKNSt7__cxx1112basic_stringIcSt11char_traitsIcESaIcEEEP16SymbolTableEntryELb1EEEELb1EED2Ev, @function
_ZNSt8__detail21_Hashtable_ebo_helperILi0ESaINS_10_Hash_nodeISt4pairIKNSt7__cxx1112basic_stringIcSt11char_traitsIcESaIcEEEP16SymbolTableEntryELb1EEEELb1EED2Ev:
.LFB8215:
	.cfi_startproc
	pushq	%rbp
	.cfi_def_cfa_offset 16
	.cfi_offset 6, -16
	movq	%rsp, %rbp
	.cfi_def_cfa_register 6
	subq	$16, %rsp
	movq	%rdi, -8(%rbp)
	movq	-8(%rbp), %rax
	movq	%rax, %rdi
	call	_ZNSaINSt8__detail10_Hash_nodeISt4pairIKNSt7__cxx1112basic_stringIcSt11char_traitsIcESaIcEEEP16SymbolTableEntryELb1EEEED2Ev
	nop
	leave
	.cfi_def_cfa 7, 8
	ret
	.cfi_endproc
.LFE8215:
	.size	_ZNSt8__detail21_Hashtable_ebo_helperILi0ESaINS_10_Hash_nodeISt4pairIKNSt7__cxx1112basic_stringIcSt11char_traitsIcESaIcEEEP16SymbolTableEntryELb1EEEELb1EED2Ev, .-_ZNSt8__detail21_Hashtable_ebo_helperILi0ESaINS_10_Hash_nodeISt4pairIKNSt7__cxx1112basic_stringIcSt11char_traitsIcESaIcEEEP16SymbolTableEntryELb1EEEELb1EED2Ev
	.weak	_ZNSt8__detail21_Hashtable_ebo_helperILi0ESaINS_10_Hash_nodeISt4pairIKNSt7__cxx1112basic_stringIcSt11char_traitsIcESaIcEEEP16SymbolTableEntryELb1EEEELb1EED1Ev
	.set	_ZNSt8__detail21_Hashtable_ebo_helperILi0ESaINS_10_Hash_nodeISt4pairIKNSt7__cxx1112basic_stringIcSt11char_traitsIcESaIcEEEP16SymbolTableEntryELb1EEEELb1EED1Ev,_ZNSt8__detail21_Hashtable_ebo_helperILi0ESaINS_10_Hash_nodeISt4pairIKNSt7__cxx1112basic_stringIcSt11char_traitsIcESaIcEEEP16SymbolTableEntryELb1EEEELb1EED2Ev
	.section	.text._ZNSt8__detail16_Hashtable_allocISaINS_10_Hash_nodeISt4pairIKNSt7__cxx1112basic_stringIcSt11char_traitsIcESaIcEEEP16SymbolTableEntryELb1EEEEEC2Ev,"axG",@progbits,_ZNSt8__detail16_Hashtable_allocISaINS_10_Hash_nodeISt4pairIKNSt7__cxx1112basic_stringIcSt11char_traitsIcESaIcEEEP16SymbolTableEntryELb1EEEEEC5Ev,comdat
	.align 2
	.weak	_ZNSt8__detail16_Hashtable_allocISaINS_10_Hash_nodeISt4pairIKNSt7__cxx1112basic_stringIcSt11char_traitsIcESaIcEEEP16SymbolTableEntryELb1EEEEEC2Ev
	.type	_ZNSt8__detail16_Hashtable_allocISaINS_10_Hash_nodeISt4pairIKNSt7__cxx1112basic_stringIcSt11char_traitsIcESaIcEEEP16SymbolTableEntryELb1EEEEEC2Ev, @function
_ZNSt8__detail16_Hashtable_allocISaINS_10_Hash_nodeISt4pairIKNSt7__cxx1112basic_stringIcSt11char_traitsIcESaIcEEEP16SymbolTableEntryELb1EEEEEC2Ev:
.LFB8217:
	.cfi_startproc
	pushq	%rbp
	.cfi_def_cfa_offset 16
	.cfi_offset 6, -16
	movq	%rsp, %rbp
	.cfi_def_cfa_register 6
	subq	$16, %rsp
	movq	%rdi, -8(%rbp)
	movq	-8(%rbp), %rax
	movq	%rax, %rdi
	call	_ZNSt8__detail21_Hashtable_ebo_helperILi0ESaINS_10_Hash_nodeISt4pairIKNSt7__cxx1112basic_stringIcSt11char_traitsIcESaIcEEEP16SymbolTableEntryELb1EEEELb1EEC2Ev
	nop
	leave
	.cfi_def_cfa 7, 8
	ret
	.cfi_endproc
.LFE8217:
	.size	_ZNSt8__detail16_Hashtable_allocISaINS_10_Hash_nodeISt4pairIKNSt7__cxx1112basic_stringIcSt11char_traitsIcESaIcEEEP16SymbolTableEntryELb1EEEEEC2Ev, .-_ZNSt8__detail16_Hashtable_allocISaINS_10_Hash_nodeISt4pairIKNSt7__cxx1112basic_stringIcSt11char_traitsIcESaIcEEEP16SymbolTableEntryELb1EEEEEC2Ev
	.weak	_ZNSt8__detail16_Hashtable_allocISaINS_10_Hash_nodeISt4pairIKNSt7__cxx1112basic_stringIcSt11char_traitsIcESaIcEEEP16SymbolTableEntryELb1EEEEEC1Ev
	.set	_ZNSt8__detail16_Hashtable_allocISaINS_10_Hash_nodeISt4pairIKNSt7__cxx1112basic_stringIcSt11char_traitsIcESaIcEEEP16SymbolTableEntryELb1EEEEEC1Ev,_ZNSt8__detail16_Hashtable_allocISaINS_10_Hash_nodeISt4pairIKNSt7__cxx1112basic_stringIcSt11char_traitsIcESaIcEEEP16SymbolTableEntryELb1EEEEEC2Ev
	.section	.text._ZNSt8__detail16_Hashtable_allocISaINS_10_Hash_nodeISt4pairIKNSt7__cxx1112basic_stringIcSt11char_traitsIcESaIcEEEP16SymbolTableEntryELb1EEEEED2Ev,"axG",@progbits,_ZNSt8__detail16_Hashtable_allocISaINS_10_Hash_nodeISt4pairIKNSt7__cxx1112basic_stringIcSt11char_traitsIcESaIcEEEP16SymbolTableEntryELb1EEEEED5Ev,comdat
	.align 2
	.weak	_ZNSt8__detail16_Hashtable_allocISaINS_10_Hash_nodeISt4pairIKNSt7__cxx1112basic_stringIcSt11char_traitsIcESaIcEEEP16SymbolTableEntryELb1EEEEED2Ev
	.type	_ZNSt8__detail16_Hashtable_allocISaINS_10_Hash_nodeISt4pairIKNSt7__cxx1112basic_stringIcSt11char_traitsIcESaIcEEEP16SymbolTableEntryELb1EEEEED2Ev, @function
_ZNSt8__detail16_Hashtable_allocISaINS_10_Hash_nodeISt4pairIKNSt7__cxx1112basic_stringIcSt11char_traitsIcESaIcEEEP16SymbolTableEntryELb1EEEEED2Ev:
.LFB8220:
	.cfi_startproc
	pushq	%rbp
	.cfi_def_cfa_offset 16
	.cfi_offset 6, -16
	movq	%rsp, %rbp
	.cfi_def_cfa_register 6
	subq	$16, %rsp
	movq	%rdi, -8(%rbp)
	movq	-8(%rbp), %rax
	movq	%rax, %rdi
	call	_ZNSt8__detail21_Hashtable_ebo_helperILi0ESaINS_10_Hash_nodeISt4pairIKNSt7__cxx1112basic_stringIcSt11char_traitsIcESaIcEEEP16SymbolTableEntryELb1EEEELb1EED2Ev
	nop
	leave
	.cfi_def_cfa 7, 8
	ret
	.cfi_endproc
.LFE8220:
	.size	_ZNSt8__detail16_Hashtable_allocISaINS_10_Hash_nodeISt4pairIKNSt7__cxx1112basic_stringIcSt11char_traitsIcESaIcEEEP16SymbolTableEntryELb1EEEEED2Ev, .-_ZNSt8__detail16_Hashtable_allocISaINS_10_Hash_nodeISt4pairIKNSt7__cxx1112basic_stringIcSt11char_traitsIcESaIcEEEP16SymbolTableEntryELb1EEEEED2Ev
	.weak	_ZNSt8__detail16_Hashtable_allocISaINS_10_Hash_nodeISt4pairIKNSt7__cxx1112basic_stringIcSt11char_traitsIcESaIcEEEP16SymbolTableEntryELb1EEEEED1Ev
	.set	_ZNSt8__detail16_Hashtable_allocISaINS_10_Hash_nodeISt4pairIKNSt7__cxx1112basic_stringIcSt11char_traitsIcESaIcEEEP16SymbolTableEntryELb1EEEEED1Ev,_ZNSt8__detail16_Hashtable_allocISaINS_10_Hash_nodeISt4pairIKNSt7__cxx1112basic_stringIcSt11char_traitsIcESaIcEEEP16SymbolTableEntryELb1EEEEED2Ev
	.section	.text._ZNSt10_HashtableINSt7__cxx1112basic_stringIcSt11char_traitsIcESaIcEEESt4pairIKS5_P16SymbolTableEntryESaISA_ENSt8__detail10_Select1stESt8equal_toIS5_ESt4hashIS5_ENSC_18_Mod_range_hashingENSC_20_Default_ranged_hashENSC_20_Prime_rehash_policyENSC_17_Hashtable_traitsILb1ELb0ELb1EEEEC2Ev,"axG",@progbits,_ZNSt10_HashtableINSt7__cxx1112basic_stringIcSt11char_traitsIcESaIcEEESt4pairIKS5_P16SymbolTableEntryESaISA_ENSt8__detail10_Select1stESt8equal_toIS5_ESt4hashIS5_ENSC_18_Mod_range_hashingENSC_20_Default_ranged_hashENSC_20_Prime_rehash_policyENSC_17_Hashtable_traitsILb1ELb0ELb1EEEEC5Ev,comdat
	.align 2
	.weak	_ZNSt10_HashtableINSt7__cxx1112basic_stringIcSt11char_traitsIcESaIcEEESt4pairIKS5_P16SymbolTableEntryESaISA_ENSt8__detail10_Select1stESt8equal_toIS5_ESt4hashIS5_ENSC_18_Mod_range_hashingENSC_20_Default_ranged_hashENSC_20_Prime_rehash_policyENSC_17_Hashtable_traitsILb1ELb0ELb1EEEEC2Ev
	.type	_ZNSt10_HashtableINSt7__cxx1112basic_stringIcSt11char_traitsIcESaIcEEESt4pairIKS5_P16SymbolTableEntryESaISA_ENSt8__detail10_Select1stESt8equal_toIS5_ESt4hashIS5_ENSC_18_Mod_range_hashingENSC_20_Default_ranged_hashENSC_20_Prime_rehash_policyENSC_17_Hashtable_traitsILb1ELb0ELb1EEEEC2Ev, @function
_ZNSt10_HashtableINSt7__cxx1112basic_stringIcSt11char_traitsIcESaIcEEESt4pairIKS5_P16SymbolTableEntryESaISA_ENSt8__detail10_Select1stESt8equal_toIS5_ESt4hashIS5_ENSC_18_Mod_range_hashingENSC_20_Default_ranged_hashENSC_20_Prime_rehash_policyENSC_17_Hashtable_traitsILb1ELb0ELb1EEEEC2Ev:
.LFB8222:
	.cfi_startproc
	pushq	%rbp
	.cfi_def_cfa_offset 16
	.cfi_offset 6, -16
	movq	%rsp, %rbp
	.cfi_def_cfa_register 6
	subq	$16, %rsp
	movq	%rdi, -8(%rbp)
	movq	-8(%rbp), %rax
	movq	%rax, %rdi
	call	_ZNSt8__detail16_Hashtable_allocISaINS_10_Hash_nodeISt4pairIKNSt7__cxx1112basic_stringIcSt11char_traitsIcESaIcEEEP16SymbolTableEntryELb1EEEEEC2Ev
	movq	-8(%rbp), %rax
	leaq	48(%rax), %rdx
	movq	-8(%rbp), %rax
	movq	%rdx, (%rax)
	movq	-8(%rbp), %rax
	movq	$1, 8(%rax)
	movq	-8(%rbp), %rax
	addq	$16, %rax
	movq	%rax, %rdi
	call	_ZNSt8__detail15_Hash_node_baseC1Ev
	movq	-8(%rbp), %rax
	movq	$0, 24(%rax)
	movq	-8(%rbp), %rax
	addq	$32, %rax
	movss	.LC1(%rip), %xmm0
	movq	%rax, %rdi
	call	_ZNSt8__detail20_Prime_rehash_policyC1Ef
	movq	-8(%rbp), %rax
	movq	$0, 48(%rax)
	nop
	leave
	.cfi_def_cfa 7, 8
	ret
	.cfi_endproc
.LFE8222:
	.size	_ZNSt10_HashtableINSt7__cxx1112basic_stringIcSt11char_traitsIcESaIcEEESt4pairIKS5_P16SymbolTableEntryESaISA_ENSt8__detail10_Select1stESt8equal_toIS5_ESt4hashIS5_ENSC_18_Mod_range_hashingENSC_20_Default_ranged_hashENSC_20_Prime_rehash_policyENSC_17_Hashtable_traitsILb1ELb0ELb1EEEEC2Ev, .-_ZNSt10_HashtableINSt7__cxx1112basic_stringIcSt11char_traitsIcESaIcEEESt4pairIKS5_P16SymbolTableEntryESaISA_ENSt8__detail10_Select1stESt8equal_toIS5_ESt4hashIS5_ENSC_18_Mod_range_hashingENSC_20_Default_ranged_hashENSC_20_Prime_rehash_policyENSC_17_Hashtable_traitsILb1ELb0ELb1EEEEC2Ev
	.weak	_ZNSt10_HashtableINSt7__cxx1112basic_stringIcSt11char_traitsIcESaIcEEESt4pairIKS5_P16SymbolTableEntryESaISA_ENSt8__detail10_Select1stESt8equal_toIS5_ESt4hashIS5_ENSC_18_Mod_range_hashingENSC_20_Default_ranged_hashENSC_20_Prime_rehash_policyENSC_17_Hashtable_traitsILb1ELb0ELb1EEEEC1Ev
	.set	_ZNSt10_HashtableINSt7__cxx1112basic_stringIcSt11char_traitsIcESaIcEEESt4pairIKS5_P16SymbolTableEntryESaISA_ENSt8__detail10_Select1stESt8equal_toIS5_ESt4hashIS5_ENSC_18_Mod_range_hashingENSC_20_Default_ranged_hashENSC_20_Prime_rehash_policyENSC_17_Hashtable_traitsILb1ELb0ELb1EEEEC1Ev,_ZNSt10_HashtableINSt7__cxx1112basic_stringIcSt11char_traitsIcESaIcEEESt4pairIKS5_P16SymbolTableEntryESaISA_ENSt8__detail10_Select1stESt8equal_toIS5_ESt4hashIS5_ENSC_18_Mod_range_hashingENSC_20_Default_ranged_hashENSC_20_Prime_rehash_policyENSC_17_Hashtable_traitsILb1ELb0ELb1EEEEC2Ev
	.section	.text._ZNSt13unordered_mapINSt7__cxx1112basic_stringIcSt11char_traitsIcESaIcEEEP16SymbolTableEntrySt4hashIS5_ESt8equal_toIS5_ESaISt4pairIKS5_S7_EEEC2Ev,"axG",@progbits,_ZNSt13unordered_mapINSt7__cxx1112basic_stringIcSt11char_traitsIcESaIcEEEP16SymbolTableEntrySt4hashIS5_ESt8equal_toIS5_ESaISt4pairIKS5_S7_EEEC5Ev,comdat
	.align 2
	.weak	_ZNSt13unordered_mapINSt7__cxx1112basic_stringIcSt11char_traitsIcESaIcEEEP16SymbolTableEntrySt4hashIS5_ESt8equal_toIS5_ESaISt4pairIKS5_S7_EEEC2Ev
	.type	_ZNSt13unordered_mapINSt7__cxx1112basic_stringIcSt11char_traitsIcESaIcEEEP16SymbolTableEntrySt4hashIS5_ESt8equal_toIS5_ESaISt4pairIKS5_S7_EEEC2Ev, @function
_ZNSt13unordered_mapINSt7__cxx1112basic_stringIcSt11char_traitsIcESaIcEEEP16SymbolTableEntrySt4hashIS5_ESt8equal_toIS5_ESaISt4pairIKS5_S7_EEEC2Ev:
.LFB8224:
	.cfi_startproc
	pushq	%rbp
	.cfi_def_cfa_offset 16
	.cfi_offset 6, -16
	movq	%rsp, %rbp
	.cfi_def_cfa_register 6
	subq	$16, %rsp
	movq	%rdi, -8(%rbp)
	movq	-8(%rbp), %rax
	movq	%rax, %rdi
	call	_ZNSt10_HashtableINSt7__cxx1112basic_stringIcSt11char_traitsIcESaIcEEESt4pairIKS5_P16SymbolTableEntryESaISA_ENSt8__detail10_Select1stESt8equal_toIS5_ESt4hashIS5_ENSC_18_Mod_range_hashingENSC_20_Default_ranged_hashENSC_20_Prime_rehash_policyENSC_17_Hashtable_traitsILb1ELb0ELb1EEEEC1Ev
	nop
	leave
	.cfi_def_cfa 7, 8
	ret
	.cfi_endproc
.LFE8224:
	.size	_ZNSt13unordered_mapINSt7__cxx1112basic_stringIcSt11char_traitsIcESaIcEEEP16SymbolTableEntrySt4hashIS5_ESt8equal_toIS5_ESaISt4pairIKS5_S7_EEEC2Ev, .-_ZNSt13unordered_mapINSt7__cxx1112basic_stringIcSt11char_traitsIcESaIcEEEP16SymbolTableEntrySt4hashIS5_ESt8equal_toIS5_ESaISt4pairIKS5_S7_EEEC2Ev
	.weak	_ZNSt13unordered_mapINSt7__cxx1112basic_stringIcSt11char_traitsIcESaIcEEEP16SymbolTableEntrySt4hashIS5_ESt8equal_toIS5_ESaISt4pairIKS5_S7_EEEC1Ev
	.set	_ZNSt13unordered_mapINSt7__cxx1112basic_stringIcSt11char_traitsIcESaIcEEEP16SymbolTableEntrySt4hashIS5_ESt8equal_toIS5_ESaISt4pairIKS5_S7_EEEC1Ev,_ZNSt13unordered_mapINSt7__cxx1112basic_stringIcSt11char_traitsIcESaIcEEEP16SymbolTableEntrySt4hashIS5_ESt8equal_toIS5_ESaISt4pairIKS5_S7_EEEC2Ev
	.section	.text._ZNSt13unordered_mapINSt7__cxx1112basic_stringIcSt11char_traitsIcESaIcEEEP16SymbolTableEntrySt4hashIS5_ESt8equal_toIS5_ESaISt4pairIKS5_S7_EEED2Ev,"axG",@progbits,_ZNSt13unordered_mapINSt7__cxx1112basic_stringIcSt11char_traitsIcESaIcEEEP16SymbolTableEntrySt4hashIS5_ESt8equal_toIS5_ESaISt4pairIKS5_S7_EEED5Ev,comdat
	.align 2
	.weak	_ZNSt13unordered_mapINSt7__cxx1112basic_stringIcSt11char_traitsIcESaIcEEEP16SymbolTableEntrySt4hashIS5_ESt8equal_toIS5_ESaISt4pairIKS5_S7_EEED2Ev
	.type	_ZNSt13unordered_mapINSt7__cxx1112basic_stringIcSt11char_traitsIcESaIcEEEP16SymbolTableEntrySt4hashIS5_ESt8equal_toIS5_ESaISt4pairIKS5_S7_EEED2Ev, @function
_ZNSt13unordered_mapINSt7__cxx1112basic_stringIcSt11char_traitsIcESaIcEEEP16SymbolTableEntrySt4hashIS5_ESt8equal_toIS5_ESaISt4pairIKS5_S7_EEED2Ev:
.LFB8227:
	.cfi_startproc
	pushq	%rbp
	.cfi_def_cfa_offset 16
	.cfi_offset 6, -16
	movq	%rsp, %rbp
	.cfi_def_cfa_register 6
	subq	$16, %rsp
	movq	%rdi, -8(%rbp)
	movq	-8(%rbp), %rax
	movq	%rax, %rdi
	call	_ZNSt10_HashtableINSt7__cxx1112basic_stringIcSt11char_traitsIcESaIcEEESt4pairIKS5_P16SymbolTableEntryESaISA_ENSt8__detail10_Select1stESt8equal_toIS5_ESt4hashIS5_ENSC_18_Mod_range_hashingENSC_20_Default_ranged_hashENSC_20_Prime_rehash_policyENSC_17_Hashtable_traitsILb1ELb0ELb1EEEED1Ev
	nop
	leave
	.cfi_def_cfa 7, 8
	ret
	.cfi_endproc
.LFE8227:
	.size	_ZNSt13unordered_mapINSt7__cxx1112basic_stringIcSt11char_traitsIcESaIcEEEP16SymbolTableEntrySt4hashIS5_ESt8equal_toIS5_ESaISt4pairIKS5_S7_EEED2Ev, .-_ZNSt13unordered_mapINSt7__cxx1112basic_stringIcSt11char_traitsIcESaIcEEEP16SymbolTableEntrySt4hashIS5_ESt8equal_toIS5_ESaISt4pairIKS5_S7_EEED2Ev
	.weak	_ZNSt13unordered_mapINSt7__cxx1112basic_stringIcSt11char_traitsIcESaIcEEEP16SymbolTableEntrySt4hashIS5_ESt8equal_toIS5_ESaISt4pairIKS5_S7_EEED1Ev
	.set	_ZNSt13unordered_mapINSt7__cxx1112basic_stringIcSt11char_traitsIcESaIcEEEP16SymbolTableEntrySt4hashIS5_ESt8equal_toIS5_ESaISt4pairIKS5_S7_EEED1Ev,_ZNSt13unordered_mapINSt7__cxx1112basic_stringIcSt11char_traitsIcESaIcEEEP16SymbolTableEntrySt4hashIS5_ESt8equal_toIS5_ESaISt4pairIKS5_S7_EEED2Ev
	.section	.text._ZN11SymbolTableC2Ev,"axG",@progbits,_ZN11SymbolTableC5Ev,comdat
	.align 2
	.weak	_ZN11SymbolTableC2Ev
	.type	_ZN11SymbolTableC2Ev, @function
_ZN11SymbolTableC2Ev:
.LFB8229:
	.cfi_startproc
	pushq	%rbp
	.cfi_def_cfa_offset 16
	.cfi_offset 6, -16
	movq	%rsp, %rbp
	.cfi_def_cfa_register 6
	subq	$16, %rsp
	movq	%rdi, -8(%rbp)
	movq	-8(%rbp), %rax
	movq	%rax, %rdi
	call	_ZNSt13unordered_mapINSt7__cxx1112basic_stringIcSt11char_traitsIcESaIcEEEP16SymbolTableEntrySt4hashIS5_ESt8equal_toIS5_ESaISt4pairIKS5_S7_EEEC1Ev
	nop
	leave
	.cfi_def_cfa 7, 8
	ret
	.cfi_endproc
.LFE8229:
	.size	_ZN11SymbolTableC2Ev, .-_ZN11SymbolTableC2Ev
	.weak	_ZN11SymbolTableC1Ev
	.set	_ZN11SymbolTableC1Ev,_ZN11SymbolTableC2Ev
	.globl	symbolTable
	.bss
	.align 32
	.type	symbolTable, @object
	.size	symbolTable, 56
symbolTable:
	.zero	56
	.section	.text._ZNSt8_Rb_treeIiiSt9_IdentityIiESt4lessIiESaIiEE13_Rb_tree_implIS3_Lb1EEC2Ev,"axG",@progbits,_ZNSt8_Rb_treeIiiSt9_IdentityIiESt4lessIiESaIiEE13_Rb_tree_implIS3_Lb1EEC5Ev,comdat
	.align 2
	.weak	_ZNSt8_Rb_treeIiiSt9_IdentityIiESt4lessIiESaIiEE13_Rb_tree_implIS3_Lb1EEC2Ev
	.type	_ZNSt8_Rb_treeIiiSt9_IdentityIiESt4lessIiESaIiEE13_Rb_tree_implIS3_Lb1EEC2Ev, @function
_ZNSt8_Rb_treeIiiSt9_IdentityIiESt4lessIiESaIiEE13_Rb_tree_implIS3_Lb1EEC2Ev:
.LFB8234:
	.cfi_startproc
	pushq	%rbp
	.cfi_def_cfa_offset 16
	.cfi_offset 6, -16
	movq	%rsp, %rbp
	.cfi_def_cfa_register 6
	subq	$16, %rsp
	movq	%rdi, -8(%rbp)
	movq	-8(%rbp), %rax
	movq	%rax, %rdi
	call	_ZNSaISt13_Rb_tree_nodeIiEEC2Ev
	movq	-8(%rbp), %rax
	movq	%rax, %rdi
	call	_ZNSt20_Rb_tree_key_compareISt4lessIiEEC2Ev
	movq	-8(%rbp), %rax
	addq	$8, %rax
	movq	%rax, %rdi
	call	_ZNSt15_Rb_tree_headerC2Ev
	nop
	leave
	.cfi_def_cfa 7, 8
	ret
	.cfi_endproc
.LFE8234:
	.size	_ZNSt8_Rb_treeIiiSt9_IdentityIiESt4lessIiESaIiEE13_Rb_tree_implIS3_Lb1EEC2Ev, .-_ZNSt8_Rb_treeIiiSt9_IdentityIiESt4lessIiESaIiEE13_Rb_tree_implIS3_Lb1EEC2Ev
	.weak	_ZNSt8_Rb_treeIiiSt9_IdentityIiESt4lessIiESaIiEE13_Rb_tree_implIS3_Lb1EEC1Ev
	.set	_ZNSt8_Rb_treeIiiSt9_IdentityIiESt4lessIiESaIiEE13_Rb_tree_implIS3_Lb1EEC1Ev,_ZNSt8_Rb_treeIiiSt9_IdentityIiESt4lessIiESaIiEE13_Rb_tree_implIS3_Lb1EEC2Ev
	.section	.text._ZNSt8_Rb_treeIiiSt9_IdentityIiESt4lessIiESaIiEE13_Rb_tree_implIS3_Lb1EED2Ev,"axG",@progbits,_ZNSt8_Rb_treeIiiSt9_IdentityIiESt4lessIiESaIiEE13_Rb_tree_implIS3_Lb1EED5Ev,comdat
	.align 2
	.weak	_ZNSt8_Rb_treeIiiSt9_IdentityIiESt4lessIiESaIiEE13_Rb_tree_implIS3_Lb1EED2Ev
	.type	_ZNSt8_Rb_treeIiiSt9_IdentityIiESt4lessIiESaIiEE13_Rb_tree_implIS3_Lb1EED2Ev, @function
_ZNSt8_Rb_treeIiiSt9_IdentityIiESt4lessIiESaIiEE13_Rb_tree_implIS3_Lb1EED2Ev:
.LFB8237:
	.cfi_startproc
	pushq	%rbp
	.cfi_def_cfa_offset 16
	.cfi_offset 6, -16
	movq	%rsp, %rbp
	.cfi_def_cfa_register 6
	subq	$16, %rsp
	movq	%rdi, -8(%rbp)
	movq	-8(%rbp), %rax
	movq	%rax, %rdi
	call	_ZNSaISt13_Rb_tree_nodeIiEED2Ev
	nop
	leave
	.cfi_def_cfa 7, 8
	ret
	.cfi_endproc
.LFE8237:
	.size	_ZNSt8_Rb_treeIiiSt9_IdentityIiESt4lessIiESaIiEE13_Rb_tree_implIS3_Lb1EED2Ev, .-_ZNSt8_Rb_treeIiiSt9_IdentityIiESt4lessIiESaIiEE13_Rb_tree_implIS3_Lb1EED2Ev
	.weak	_ZNSt8_Rb_treeIiiSt9_IdentityIiESt4lessIiESaIiEE13_Rb_tree_implIS3_Lb1EED1Ev
	.set	_ZNSt8_Rb_treeIiiSt9_IdentityIiESt4lessIiESaIiEE13_Rb_tree_implIS3_Lb1EED1Ev,_ZNSt8_Rb_treeIiiSt9_IdentityIiESt4lessIiESaIiEE13_Rb_tree_implIS3_Lb1EED2Ev
	.section	.text._ZNSt8_Rb_treeIiiSt9_IdentityIiESt4lessIiESaIiEEC2Ev,"axG",@progbits,_ZNSt8_Rb_treeIiiSt9_IdentityIiESt4lessIiESaIiEEC5Ev,comdat
	.align 2
	.weak	_ZNSt8_Rb_treeIiiSt9_IdentityIiESt4lessIiESaIiEEC2Ev
	.type	_ZNSt8_Rb_treeIiiSt9_IdentityIiESt4lessIiESaIiEEC2Ev, @function
_ZNSt8_Rb_treeIiiSt9_IdentityIiESt4lessIiESaIiEEC2Ev:
.LFB8239:
	.cfi_startproc
	pushq	%rbp
	.cfi_def_cfa_offset 16
	.cfi_offset 6, -16
	movq	%rsp, %rbp
	.cfi_def_cfa_register 6
	subq	$16, %rsp
	movq	%rdi, -8(%rbp)
	movq	-8(%rbp), %rax
	movq	%rax, %rdi
	call	_ZNSt8_Rb_treeIiiSt9_IdentityIiESt4lessIiESaIiEE13_Rb_tree_implIS3_Lb1EEC1Ev
	nop
	leave
	.cfi_def_cfa 7, 8
	ret
	.cfi_endproc
.LFE8239:
	.size	_ZNSt8_Rb_treeIiiSt9_IdentityIiESt4lessIiESaIiEEC2Ev, .-_ZNSt8_Rb_treeIiiSt9_IdentityIiESt4lessIiESaIiEEC2Ev
	.weak	_ZNSt8_Rb_treeIiiSt9_IdentityIiESt4lessIiESaIiEEC1Ev
	.set	_ZNSt8_Rb_treeIiiSt9_IdentityIiESt4lessIiESaIiEEC1Ev,_ZNSt8_Rb_treeIiiSt9_IdentityIiESt4lessIiESaIiEEC2Ev
	.section	.text._ZNSt3setIiSt4lessIiESaIiEEC2Ev,"axG",@progbits,_ZNSt3setIiSt4lessIiESaIiEEC5Ev,comdat
	.align 2
	.weak	_ZNSt3setIiSt4lessIiESaIiEEC2Ev
	.type	_ZNSt3setIiSt4lessIiESaIiEEC2Ev, @function
_ZNSt3setIiSt4lessIiESaIiEEC2Ev:
.LFB8241:
	.cfi_startproc
	pushq	%rbp
	.cfi_def_cfa_offset 16
	.cfi_offset 6, -16
	movq	%rsp, %rbp
	.cfi_def_cfa_register 6
	subq	$16, %rsp
	movq	%rdi, -8(%rbp)
	movq	-8(%rbp), %rax
	movq	%rax, %rdi
	call	_ZNSt8_Rb_treeIiiSt9_IdentityIiESt4lessIiESaIiEEC1Ev
	nop
	leave
	.cfi_def_cfa 7, 8
	ret
	.cfi_endproc
.LFE8241:
	.size	_ZNSt3setIiSt4lessIiESaIiEEC2Ev, .-_ZNSt3setIiSt4lessIiESaIiEEC2Ev
	.weak	_ZNSt3setIiSt4lessIiESaIiEEC1Ev
	.set	_ZNSt3setIiSt4lessIiESaIiEEC1Ev,_ZNSt3setIiSt4lessIiESaIiEEC2Ev
	.globl	leaders
	.bss
	.align 32
	.type	leaders, @object
	.size	leaders, 48
leaders:
	.zero	48
	.globl	registerDescriptor
	.align 32
	.type	registerDescriptor, @object
	.size	registerDescriptor, 56
registerDescriptor:
	.zero	56
	.globl	myfile
	.align 32
	.type	myfile, @object
	.size	myfile, 512
myfile:
	.zero	512
	.text
	.globl	_Z5isNumc
	.type	_Z5isNumc, @function
_Z5isNumc:
.LFB8243:
	.cfi_startproc
	pushq	%rbp
	.cfi_def_cfa_offset 16
	.cfi_offset 6, -16
	movq	%rsp, %rbp
	.cfi_def_cfa_register 6
	movl	%edi, %eax
	movb	%al, -4(%rbp)
	cmpb	$47, -4(%rbp)
	jle	.L97
	cmpb	$57, -4(%rbp)
	jg	.L97
	movl	$1, %eax
	jmp	.L98
.L97:
	movl	$0, %eax
.L98:
	popq	%rbp
	.cfi_def_cfa 7, 8
	ret
	.cfi_endproc
.LFE8243:
	.size	_Z5isNumc, .-_Z5isNumc
	.section	.rodata
.LC2:
	.string	" "
	.text
	.globl	_Z8printSetSt3setIiSt4lessIiESaIiEE
	.type	_Z8printSetSt3setIiSt4lessIiESaIiEE, @function
_Z8printSetSt3setIiSt4lessIiESaIiEE:
.LFB8244:
	.cfi_startproc
	pushq	%rbp
	.cfi_def_cfa_offset 16
	.cfi_offset 6, -16
	movq	%rsp, %rbp
	.cfi_def_cfa_register 6
	subq	$48, %rsp
	movq	%rdi, -40(%rbp)
	movq	%fs:40, %rax
	movq	%rax, -8(%rbp)
	xorl	%eax, %eax
	leaq	leaders(%rip), %rdi
	call	_ZNKSt3setIiSt4lessIiESaIiEE5beginEv
	movq	%rax, -24(%rbp)
	leaq	leaders(%rip), %rdi
	call	_ZNKSt3setIiSt4lessIiESaIiEE5beginEv
	movq	%rax, -24(%rbp)
.L101:
	leaq	leaders(%rip), %rdi
	call	_ZNKSt3setIiSt4lessIiESaIiEE3endEv
	movq	%rax, -16(%rbp)
	leaq	-16(%rbp), %rdx
	leaq	-24(%rbp), %rax
	movq	%rdx, %rsi
	movq	%rax, %rdi
	call	_ZNKSt23_Rb_tree_const_iteratorIiEneERKS0_
	testb	%al, %al
	je	.L100
	leaq	-24(%rbp), %rax
	movq	%rax, %rdi
	call	_ZNKSt23_Rb_tree_const_iteratorIiEdeEv
	movl	(%rax), %eax
	movl	%eax, %esi
	leaq	_ZSt4cout(%rip), %rdi
	call	_ZNSolsEi@PLT
	leaq	.LC2(%rip), %rsi
	movq	%rax, %rdi
	call	_ZStlsISt11char_traitsIcEERSt13basic_ostreamIcT_ES5_PKc@PLT
	leaq	-24(%rbp), %rax
	movq	%rax, %rdi
	call	_ZNSt23_Rb_tree_const_iteratorIiEppEv
	jmp	.L101
.L100:
	movq	_ZSt4endlIcSt11char_traitsIcEERSt13basic_ostreamIT_T0_ES6_@GOTPCREL(%rip), %rax
	movq	%rax, %rsi
	leaq	_ZSt4cout(%rip), %rdi
	call	_ZNSolsEPFRSoS_E@PLT
	nop
	movq	-8(%rbp), %rax
	xorq	%fs:40, %rax
	je	.L102
	call	__stack_chk_fail@PLT
.L102:
	leave
	.cfi_def_cfa 7, 8
	ret
	.cfi_endproc
.LFE8244:
	.size	_Z8printSetSt3setIiSt4lessIiESaIiEE, .-_Z8printSetSt3setIiSt4lessIiESaIiEE
	.section	.rodata
.LC3:
	.string	"%RAX"
.LC4:
	.string	"%RBX"
.LC5:
	.string	"%RCX"
.LC6:
	.string	"%RDX"
.LC7:
	.string	"%RSI"
.LC8:
	.string	"%RDI"
.LC9:
	.string	""
	.text
	.globl	_Z7reg2strB5cxx118Register
	.type	_Z7reg2strB5cxx118Register, @function
_Z7reg2strB5cxx118Register:
.LFB8245:
	.cfi_startproc
	.cfi_personality 0x9b,DW.ref.__gxx_personality_v0
	.cfi_lsda 0x1b,.LLSDA8245
	pushq	%rbp
	.cfi_def_cfa_offset 16
	.cfi_offset 6, -16
	movq	%rsp, %rbp
	.cfi_def_cfa_register 6
	pushq	%rbx
	subq	$40, %rsp
	.cfi_offset 3, -24
	movq	%rdi, -40(%rbp)
	movl	%esi, -44(%rbp)
	movq	%fs:40, %rax
	movq	%rax, -24(%rbp)
	xorl	%eax, %eax
	movl	-44(%rbp), %eax
	cmpl	$5, %eax
	ja	.L104
	movl	%eax, %eax
	leaq	0(,%rax,4), %rdx
	leaq	.L106(%rip), %rax
	movl	(%rdx,%rax), %eax
	movslq	%eax, %rdx
	leaq	.L106(%rip), %rax
	addq	%rdx, %rax
	jmp	*%rax
	.section	.rodata
	.align 4
	.align 4
.L106:
	.long	.L105-.L106
	.long	.L107-.L106
	.long	.L108-.L106
	.long	.L109-.L106
	.long	.L110-.L106
	.long	.L111-.L106
	.text
.L105:
	leaq	-25(%rbp), %rax
	movq	%rax, %rdi
	call	_ZNSaIcEC1Ev@PLT
	leaq	-25(%rbp), %rdx
	movq	-40(%rbp), %rax
	leaq	.LC3(%rip), %rsi
	movq	%rax, %rdi
.LEHB4:
	call	_ZNSt7__cxx1112basic_stringIcSt11char_traitsIcESaIcEEC1EPKcRKS3_@PLT
.LEHE4:
	leaq	-25(%rbp), %rax
	movq	%rax, %rdi
	call	_ZNSaIcED1Ev@PLT
	jmp	.L103
.L107:
	leaq	-25(%rbp), %rax
	movq	%rax, %rdi
	call	_ZNSaIcEC1Ev@PLT
	leaq	-25(%rbp), %rdx
	movq	-40(%rbp), %rax
	leaq	.LC4(%rip), %rsi
	movq	%rax, %rdi
.LEHB5:
	call	_ZNSt7__cxx1112basic_stringIcSt11char_traitsIcESaIcEEC1EPKcRKS3_@PLT
.LEHE5:
	leaq	-25(%rbp), %rax
	movq	%rax, %rdi
	call	_ZNSaIcED1Ev@PLT
	jmp	.L103
.L108:
	leaq	-25(%rbp), %rax
	movq	%rax, %rdi
	call	_ZNSaIcEC1Ev@PLT
	leaq	-25(%rbp), %rdx
	movq	-40(%rbp), %rax
	leaq	.LC5(%rip), %rsi
	movq	%rax, %rdi
.LEHB6:
	call	_ZNSt7__cxx1112basic_stringIcSt11char_traitsIcESaIcEEC1EPKcRKS3_@PLT
.LEHE6:
	leaq	-25(%rbp), %rax
	movq	%rax, %rdi
	call	_ZNSaIcED1Ev@PLT
	jmp	.L103
.L109:
	leaq	-25(%rbp), %rax
	movq	%rax, %rdi
	call	_ZNSaIcEC1Ev@PLT
	leaq	-25(%rbp), %rdx
	movq	-40(%rbp), %rax
	leaq	.LC6(%rip), %rsi
	movq	%rax, %rdi
.LEHB7:
	call	_ZNSt7__cxx1112basic_stringIcSt11char_traitsIcESaIcEEC1EPKcRKS3_@PLT
.LEHE7:
	leaq	-25(%rbp), %rax
	movq	%rax, %rdi
	call	_ZNSaIcED1Ev@PLT
	jmp	.L103
.L110:
	leaq	-25(%rbp), %rax
	movq	%rax, %rdi
	call	_ZNSaIcEC1Ev@PLT
	leaq	-25(%rbp), %rdx
	movq	-40(%rbp), %rax
	leaq	.LC7(%rip), %rsi
	movq	%rax, %rdi
.LEHB8:
	call	_ZNSt7__cxx1112basic_stringIcSt11char_traitsIcESaIcEEC1EPKcRKS3_@PLT
.LEHE8:
	leaq	-25(%rbp), %rax
	movq	%rax, %rdi
	call	_ZNSaIcED1Ev@PLT
	jmp	.L103
.L111:
	leaq	-25(%rbp), %rax
	movq	%rax, %rdi
	call	_ZNSaIcEC1Ev@PLT
	leaq	-25(%rbp), %rdx
	movq	-40(%rbp), %rax
	leaq	.LC8(%rip), %rsi
	movq	%rax, %rdi
.LEHB9:
	call	_ZNSt7__cxx1112basic_stringIcSt11char_traitsIcESaIcEEC1EPKcRKS3_@PLT
.LEHE9:
	leaq	-25(%rbp), %rax
	movq	%rax, %rdi
	call	_ZNSaIcED1Ev@PLT
	jmp	.L103
.L104:
	leaq	-25(%rbp), %rax
	movq	%rax, %rdi
	call	_ZNSaIcEC1Ev@PLT
	leaq	-25(%rbp), %rdx
	movq	-40(%rbp), %rax
	leaq	.LC9(%rip), %rsi
	movq	%rax, %rdi
.LEHB10:
	call	_ZNSt7__cxx1112basic_stringIcSt11char_traitsIcESaIcEEC1EPKcRKS3_@PLT
.LEHE10:
	leaq	-25(%rbp), %rax
	movq	%rax, %rdi
	call	_ZNSaIcED1Ev@PLT
	jmp	.L103
.L121:
	movq	%rax, %rbx
	leaq	-25(%rbp), %rax
	movq	%rax, %rdi
	call	_ZNSaIcED1Ev@PLT
	movq	%rbx, %rax
	movq	%rax, %rdi
.LEHB11:
	call	_Unwind_Resume@PLT
.L122:
	movq	%rax, %rbx
	leaq	-25(%rbp), %rax
	movq	%rax, %rdi
	call	_ZNSaIcED1Ev@PLT
	movq	%rbx, %rax
	movq	%rax, %rdi
	call	_Unwind_Resume@PLT
.L123:
	movq	%rax, %rbx
	leaq	-25(%rbp), %rax
	movq	%rax, %rdi
	call	_ZNSaIcED1Ev@PLT
	movq	%rbx, %rax
	movq	%rax, %rdi
	call	_Unwind_Resume@PLT
.L124:
	movq	%rax, %rbx
	leaq	-25(%rbp), %rax
	movq	%rax, %rdi
	call	_ZNSaIcED1Ev@PLT
	movq	%rbx, %rax
	movq	%rax, %rdi
	call	_Unwind_Resume@PLT
.L125:
	movq	%rax, %rbx
	leaq	-25(%rbp), %rax
	movq	%rax, %rdi
	call	_ZNSaIcED1Ev@PLT
	movq	%rbx, %rax
	movq	%rax, %rdi
	call	_Unwind_Resume@PLT
.L126:
	movq	%rax, %rbx
	leaq	-25(%rbp), %rax
	movq	%rax, %rdi
	call	_ZNSaIcED1Ev@PLT
	movq	%rbx, %rax
	movq	%rax, %rdi
	call	_Unwind_Resume@PLT
.L127:
	movq	%rax, %rbx
	leaq	-25(%rbp), %rax
	movq	%rax, %rdi
	call	_ZNSaIcED1Ev@PLT
	movq	%rbx, %rax
	movq	%rax, %rdi
	call	_Unwind_Resume@PLT
.LEHE11:
.L103:
	movq	-40(%rbp), %rax
	movq	-24(%rbp), %rcx
	xorq	%fs:40, %rcx
	je	.L120
	call	__stack_chk_fail@PLT
.L120:
	addq	$40, %rsp
	popq	%rbx
	popq	%rbp
	.cfi_def_cfa 7, 8
	ret
	.cfi_endproc
.LFE8245:
	.section	.gcc_except_table,"a",@progbits
.LLSDA8245:
	.byte	0xff
	.byte	0xff
	.byte	0x1
	.uleb128 .LLSDACSE8245-.LLSDACSB8245
.LLSDACSB8245:
	.uleb128 .LEHB4-.LFB8245
	.uleb128 .LEHE4-.LEHB4
	.uleb128 .L121-.LFB8245
	.uleb128 0
	.uleb128 .LEHB5-.LFB8245
	.uleb128 .LEHE5-.LEHB5
	.uleb128 .L122-.LFB8245
	.uleb128 0
	.uleb128 .LEHB6-.LFB8245
	.uleb128 .LEHE6-.LEHB6
	.uleb128 .L123-.LFB8245
	.uleb128 0
	.uleb128 .LEHB7-.LFB8245
	.uleb128 .LEHE7-.LEHB7
	.uleb128 .L124-.LFB8245
	.uleb128 0
	.uleb128 .LEHB8-.LFB8245
	.uleb128 .LEHE8-.LEHB8
	.uleb128 .L125-.LFB8245
	.uleb128 0
	.uleb128 .LEHB9-.LFB8245
	.uleb128 .LEHE9-.LEHB9
	.uleb128 .L126-.LFB8245
	.uleb128 0
	.uleb128 .LEHB10-.LFB8245
	.uleb128 .LEHE10-.LEHB10
	.uleb128 .L127-.LFB8245
	.uleb128 0
	.uleb128 .LEHB11-.LFB8245
	.uleb128 .LEHE11-.LEHB11
	.uleb128 0
	.uleb128 0
.LLSDACSE8245:
	.text
	.size	_Z7reg2strB5cxx118Register, .-_Z7reg2strB5cxx118Register
	.section	.rodata
	.align 8
.LC10:
	.string	"-----------------------------------------"
.LC11:
	.string	"RAX: "
.LC12:
	.string	"RBX: "
.LC13:
	.string	"RCX: "
.LC14:
	.string	"RDX: "
.LC15:
	.string	"RSI: "
.LC16:
	.string	"RDI: "
	.text
	.globl	_Z28printRegisterDescriptorTablev
	.type	_Z28printRegisterDescriptorTablev, @function
_Z28printRegisterDescriptorTablev:
.LFB8246:
	.cfi_startproc
	pushq	%rbp
	.cfi_def_cfa_offset 16
	.cfi_offset 6, -16
	movq	%rsp, %rbp
	.cfi_def_cfa_register 6
	pushq	%rbx
	subq	$8, %rsp
	.cfi_offset 3, -24
	leaq	.LC10(%rip), %rsi
	leaq	_ZSt4cout(%rip), %rdi
	call	_ZStlsISt11char_traitsIcEERSt13basic_ostreamIcT_ES5_PKc@PLT
	movq	%rax, %rdx
	movq	_ZSt4endlIcSt11char_traitsIcEERSt13basic_ostreamIT_T0_ES6_@GOTPCREL(%rip), %rax
	movq	%rax, %rsi
	movq	%rdx, %rdi
	call	_ZNSolsEPFRSoS_E@PLT
	movl	$0, %esi
	leaq	registerDescriptor(%rip), %rdi
	call	_ZN18RegisterDescriptor6lookupE8Register
	testq	%rax, %rax
	setne	%al
	testb	%al, %al
	je	.L129
	leaq	.LC11(%rip), %rsi
	leaq	_ZSt4cout(%rip), %rdi
	call	_ZStlsISt11char_traitsIcEERSt13basic_ostreamIcT_ES5_PKc@PLT
	movq	%rax, %rbx
	movl	$0, %esi
	leaq	registerDescriptor(%rip), %rdi
	call	_ZN18RegisterDescriptor6lookupE8Register
	addq	$16, %rax
	movq	%rax, %rsi
	movq	%rbx, %rdi
	call	_ZStlsIcSt11char_traitsIcESaIcEERSt13basic_ostreamIT_T0_ES7_RKNSt7__cxx1112basic_stringIS4_S5_T1_EE@PLT
	movq	%rax, %rdx
	movq	_ZSt4endlIcSt11char_traitsIcEERSt13basic_ostreamIT_T0_ES6_@GOTPCREL(%rip), %rax
	movq	%rax, %rsi
	movq	%rdx, %rdi
	call	_ZNSolsEPFRSoS_E@PLT
.L129:
	movl	$1, %esi
	leaq	registerDescriptor(%rip), %rdi
	call	_ZN18RegisterDescriptor6lookupE8Register
	testq	%rax, %rax
	setne	%al
	testb	%al, %al
	je	.L130
	leaq	.LC12(%rip), %rsi
	leaq	_ZSt4cout(%rip), %rdi
	call	_ZStlsISt11char_traitsIcEERSt13basic_ostreamIcT_ES5_PKc@PLT
	movq	%rax, %rbx
	movl	$1, %esi
	leaq	registerDescriptor(%rip), %rdi
	call	_ZN18RegisterDescriptor6lookupE8Register
	addq	$16, %rax
	movq	%rax, %rsi
	movq	%rbx, %rdi
	call	_ZStlsIcSt11char_traitsIcESaIcEERSt13basic_ostreamIT_T0_ES7_RKNSt7__cxx1112basic_stringIS4_S5_T1_EE@PLT
	movq	%rax, %rdx
	movq	_ZSt4endlIcSt11char_traitsIcEERSt13basic_ostreamIT_T0_ES6_@GOTPCREL(%rip), %rax
	movq	%rax, %rsi
	movq	%rdx, %rdi
	call	_ZNSolsEPFRSoS_E@PLT
.L130:
	movl	$2, %esi
	leaq	registerDescriptor(%rip), %rdi
	call	_ZN18RegisterDescriptor6lookupE8Register
	testq	%rax, %rax
	setne	%al
	testb	%al, %al
	je	.L131
	leaq	.LC13(%rip), %rsi
	leaq	_ZSt4cout(%rip), %rdi
	call	_ZStlsISt11char_traitsIcEERSt13basic_ostreamIcT_ES5_PKc@PLT
	movq	%rax, %rbx
	movl	$2, %esi
	leaq	registerDescriptor(%rip), %rdi
	call	_ZN18RegisterDescriptor6lookupE8Register
	addq	$16, %rax
	movq	%rax, %rsi
	movq	%rbx, %rdi
	call	_ZStlsIcSt11char_traitsIcESaIcEERSt13basic_ostreamIT_T0_ES7_RKNSt7__cxx1112basic_stringIS4_S5_T1_EE@PLT
	movq	%rax, %rdx
	movq	_ZSt4endlIcSt11char_traitsIcEERSt13basic_ostreamIT_T0_ES6_@GOTPCREL(%rip), %rax
	movq	%rax, %rsi
	movq	%rdx, %rdi
	call	_ZNSolsEPFRSoS_E@PLT
.L131:
	movl	$3, %esi
	leaq	registerDescriptor(%rip), %rdi
	call	_ZN18RegisterDescriptor6lookupE8Register
	testq	%rax, %rax
	setne	%al
	testb	%al, %al
	je	.L132
	leaq	.LC14(%rip), %rsi
	leaq	_ZSt4cout(%rip), %rdi
	call	_ZStlsISt11char_traitsIcEERSt13basic_ostreamIcT_ES5_PKc@PLT
	movq	%rax, %rbx
	movl	$3, %esi
	leaq	registerDescriptor(%rip), %rdi
	call	_ZN18RegisterDescriptor6lookupE8Register
	addq	$16, %rax
	movq	%rax, %rsi
	movq	%rbx, %rdi
	call	_ZStlsIcSt11char_traitsIcESaIcEERSt13basic_ostreamIT_T0_ES7_RKNSt7__cxx1112basic_stringIS4_S5_T1_EE@PLT
	movq	%rax, %rdx
	movq	_ZSt4endlIcSt11char_traitsIcEERSt13basic_ostreamIT_T0_ES6_@GOTPCREL(%rip), %rax
	movq	%rax, %rsi
	movq	%rdx, %rdi
	call	_ZNSolsEPFRSoS_E@PLT
.L132:
	movl	$4, %esi
	leaq	registerDescriptor(%rip), %rdi
	call	_ZN18RegisterDescriptor6lookupE8Register
	testq	%rax, %rax
	setne	%al
	testb	%al, %al
	je	.L133
	leaq	.LC15(%rip), %rsi
	leaq	_ZSt4cout(%rip), %rdi
	call	_ZStlsISt11char_traitsIcEERSt13basic_ostreamIcT_ES5_PKc@PLT
	movq	%rax, %rbx
	movl	$4, %esi
	leaq	registerDescriptor(%rip), %rdi
	call	_ZN18RegisterDescriptor6lookupE8Register
	addq	$16, %rax
	movq	%rax, %rsi
	movq	%rbx, %rdi
	call	_ZStlsIcSt11char_traitsIcESaIcEERSt13basic_ostreamIT_T0_ES7_RKNSt7__cxx1112basic_stringIS4_S5_T1_EE@PLT
	movq	%rax, %rdx
	movq	_ZSt4endlIcSt11char_traitsIcEERSt13basic_ostreamIT_T0_ES6_@GOTPCREL(%rip), %rax
	movq	%rax, %rsi
	movq	%rdx, %rdi
	call	_ZNSolsEPFRSoS_E@PLT
.L133:
	movl	$5, %esi
	leaq	registerDescriptor(%rip), %rdi
	call	_ZN18RegisterDescriptor6lookupE8Register
	testq	%rax, %rax
	setne	%al
	testb	%al, %al
	je	.L134
	leaq	.LC16(%rip), %rsi
	leaq	_ZSt4cout(%rip), %rdi
	call	_ZStlsISt11char_traitsIcEERSt13basic_ostreamIcT_ES5_PKc@PLT
	movq	%rax, %rbx
	movl	$5, %esi
	leaq	registerDescriptor(%rip), %rdi
	call	_ZN18RegisterDescriptor6lookupE8Register
	addq	$16, %rax
	movq	%rax, %rsi
	movq	%rbx, %rdi
	call	_ZStlsIcSt11char_traitsIcESaIcEERSt13basic_ostreamIT_T0_ES7_RKNSt7__cxx1112basic_stringIS4_S5_T1_EE@PLT
	movq	%rax, %rdx
	movq	_ZSt4endlIcSt11char_traitsIcEERSt13basic_ostreamIT_T0_ES6_@GOTPCREL(%rip), %rax
	movq	%rax, %rsi
	movq	%rdx, %rdi
	call	_ZNSolsEPFRSoS_E@PLT
.L134:
	leaq	.LC10(%rip), %rsi
	leaq	_ZSt4cout(%rip), %rdi
	call	_ZStlsISt11char_traitsIcEERSt13basic_ostreamIcT_ES5_PKc@PLT
	movq	%rax, %rdx
	movq	_ZSt4endlIcSt11char_traitsIcEERSt13basic_ostreamIT_T0_ES6_@GOTPCREL(%rip), %rax
	movq	%rax, %rsi
	movq	%rdx, %rdi
	call	_ZNSolsEPFRSoS_E@PLT
	nop
	addq	$8, %rsp
	popq	%rbx
	popq	%rbp
	.cfi_def_cfa 7, 8
	ret
	.cfi_endproc
.LFE8246:
	.size	_Z28printRegisterDescriptorTablev, .-_Z28printRegisterDescriptorTablev
	.section	.rodata
.LC17:
	.string	"gt"
.LC18:
	.string	"\tmovq "
.LC19:
	.string	", "
.LC20:
	.string	"\n"
	.text
	.globl	_Z16allocateRegisterP14Instruction3AC
	.type	_Z16allocateRegisterP14Instruction3AC, @function
_Z16allocateRegisterP14Instruction3AC:
.LFB8247:
	.cfi_startproc
	.cfi_personality 0x9b,DW.ref.__gxx_personality_v0
	.cfi_lsda 0x1b,.LLSDA8247
	pushq	%rbp
	.cfi_def_cfa_offset 16
	.cfi_offset 6, -16
	movq	%rsp, %rbp
	.cfi_def_cfa_register 6
	pushq	%rbx
	subq	$88, %rsp
	.cfi_offset 3, -24
	movq	%rdi, -88(%rbp)
	movq	%fs:40, %rax
	movq	%rax, -24(%rbp)
	xorl	%eax, %eax
	movq	-88(%rbp), %rax
	movq	56(%rax), %rax
	movq	%rax, -72(%rbp)
	movq	-88(%rbp), %rax
	movl	4(%rax), %eax
	cmpl	$3, %eax
	jne	.L136
	movq	-88(%rbp), %rax
	addq	$8, %rax
	leaq	.LC17(%rip), %rsi
	movq	%rax, %rdi
	call	_ZSteqIcSt11char_traitsIcESaIcEEbRKNSt7__cxx1112basic_stringIT_T0_T1_EEPKS5_
	testb	%al, %al
	je	.L137
	movq	-88(%rbp), %rax
	movq	48(%rax), %rax
	movq	%rax, -72(%rbp)
	jmp	.L138
.L137:
	movq	-88(%rbp), %rax
	movq	40(%rax), %rax
	movq	%rax, -72(%rbp)
.L138:
	movq	-72(%rbp), %rax
	movl	8(%rax), %eax
	cmpl	$6, %eax
	je	.L139
	movq	-72(%rbp), %rax
	movl	8(%rax), %eax
	movl	%eax, -76(%rbp)
	movq	-72(%rbp), %rdx
	movl	-76(%rbp), %eax
	movl	%eax, %esi
	leaq	registerDescriptor(%rip), %rdi
.LEHB12:
	call	_ZN18RegisterDescriptor6modifyE8RegisterP16SymbolTableEntry
	jmp	.L135
.L139:
	leaq	registerDescriptor(%rip), %rdi
	call	_ZN18RegisterDescriptor17findEmptyRegisterEv
	movl	%eax, -76(%rbp)
	cmpl	$6, -76(%rbp)
	jne	.L141
	movl	$0, %esi
	leaq	registerDescriptor(%rip), %rdi
	call	_ZN18RegisterDescriptor26getFarthestNextUseRegisterEb
	movl	%eax, -76(%rbp)
	leaq	.LC18(%rip), %rsi
	leaq	myfile(%rip), %rdi
	call	_ZStlsISt11char_traitsIcEERSt13basic_ostreamIcT_ES5_PKc@PLT
	movq	%rax, %rbx
	leaq	-64(%rbp), %rax
	movl	-76(%rbp), %edx
	movl	%edx, %esi
	movq	%rax, %rdi
	call	_Z7reg2strB5cxx118Register
.LEHE12:
	leaq	-64(%rbp), %rax
	movq	%rax, %rsi
	movq	%rbx, %rdi
.LEHB13:
	call	_ZStlsIcSt11char_traitsIcESaIcEERSt13basic_ostreamIT_T0_ES7_RKNSt7__cxx1112basic_stringIS4_S5_T1_EE@PLT
	leaq	.LC19(%rip), %rsi
	movq	%rax, %rdi
	call	_ZStlsISt11char_traitsIcEERSt13basic_ostreamIcT_ES5_PKc@PLT
	movq	%rax, %rbx
	movl	-76(%rbp), %eax
	movl	%eax, %esi
	leaq	registerDescriptor(%rip), %rdi
	call	_ZN18RegisterDescriptor6lookupE8Register
	addq	$16, %rax
	movq	%rax, %rsi
	movq	%rbx, %rdi
	call	_ZStlsIcSt11char_traitsIcESaIcEERSt13basic_ostreamIT_T0_ES7_RKNSt7__cxx1112basic_stringIS4_S5_T1_EE@PLT
	leaq	.LC20(%rip), %rsi
	movq	%rax, %rdi
	call	_ZStlsISt11char_traitsIcEERSt13basic_ostreamIcT_ES5_PKc@PLT
.LEHE13:
	leaq	-64(%rbp), %rax
	movq	%rax, %rdi
	call	_ZNSt7__cxx1112basic_stringIcSt11char_traitsIcESaIcEED1Ev@PLT
	movl	-76(%rbp), %eax
	movl	%eax, %esi
	leaq	registerDescriptor(%rip), %rdi
.LEHB14:
	call	_ZN18RegisterDescriptor6lookupE8Register
	movl	$6, 8(%rax)
	movq	-72(%rbp), %rdx
	movl	-76(%rbp), %eax
	movl	%eax, %esi
	leaq	registerDescriptor(%rip), %rdi
	call	_ZN18RegisterDescriptor6modifyE8RegisterP16SymbolTableEntry
	jmp	.L142
.L141:
	movq	-72(%rbp), %rdx
	movl	-76(%rbp), %eax
	movl	%eax, %esi
	leaq	registerDescriptor(%rip), %rdi
	call	_ZN18RegisterDescriptor6modifyE8RegisterP16SymbolTableEntry
.L142:
	leaq	.LC18(%rip), %rsi
	leaq	myfile(%rip), %rdi
	call	_ZStlsISt11char_traitsIcEERSt13basic_ostreamIcT_ES5_PKc@PLT
	movq	%rax, %rdx
	movq	-72(%rbp), %rax
	addq	$16, %rax
	movq	%rax, %rsi
	movq	%rdx, %rdi
	call	_ZStlsIcSt11char_traitsIcESaIcEERSt13basic_ostreamIT_T0_ES7_RKNSt7__cxx1112basic_stringIS4_S5_T1_EE@PLT
	leaq	.LC19(%rip), %rsi
	movq	%rax, %rdi
	call	_ZStlsISt11char_traitsIcEERSt13basic_ostreamIcT_ES5_PKc@PLT
	movq	%rax, %rbx
	movq	-72(%rbp), %rax
	movl	8(%rax), %edx
	leaq	-64(%rbp), %rax
	movl	%edx, %esi
	movq	%rax, %rdi
	call	_Z7reg2strB5cxx118Register
.LEHE14:
	leaq	-64(%rbp), %rax
	movq	%rax, %rsi
	movq	%rbx, %rdi
.LEHB15:
	call	_ZStlsIcSt11char_traitsIcESaIcEERSt13basic_ostreamIT_T0_ES7_RKNSt7__cxx1112basic_stringIS4_S5_T1_EE@PLT
	leaq	.LC20(%rip), %rsi
	movq	%rax, %rdi
	call	_ZStlsISt11char_traitsIcEERSt13basic_ostreamIcT_ES5_PKc@PLT
.LEHE15:
	leaq	-64(%rbp), %rax
	movq	%rax, %rdi
	call	_ZNSt7__cxx1112basic_stringIcSt11char_traitsIcESaIcEED1Ev@PLT
	jmp	.L135
.L136:
	movq	-72(%rbp), %rax
	movl	8(%rax), %eax
	cmpl	$6, %eax
	je	.L143
	movq	-72(%rbp), %rax
	movl	8(%rax), %eax
	movl	%eax, -76(%rbp)
	movq	-72(%rbp), %rdx
	movl	-76(%rbp), %eax
	movl	%eax, %esi
	leaq	registerDescriptor(%rip), %rdi
.LEHB16:
	call	_ZN18RegisterDescriptor6modifyE8RegisterP16SymbolTableEntry
	jmp	.L135
.L143:
	movq	-88(%rbp), %rax
	movq	40(%rax), %rax
	movl	(%rax), %eax
	cmpl	$2, %eax
	je	.L144
	movq	-88(%rbp), %rax
	movl	72(%rax), %eax
	cmpl	$-1, %eax
	jne	.L144
	movq	-88(%rbp), %rax
	movq	40(%rax), %rax
	movl	8(%rax), %eax
	movl	%eax, -76(%rbp)
	cmpl	$6, -76(%rbp)
	je	.L144
	leaq	.LC18(%rip), %rsi
	leaq	myfile(%rip), %rdi
	call	_ZStlsISt11char_traitsIcEERSt13basic_ostreamIcT_ES5_PKc@PLT
	movq	%rax, %rbx
	leaq	-64(%rbp), %rax
	movl	-76(%rbp), %edx
	movl	%edx, %esi
	movq	%rax, %rdi
	call	_Z7reg2strB5cxx118Register
.LEHE16:
	leaq	-64(%rbp), %rax
	movq	%rax, %rsi
	movq	%rbx, %rdi
.LEHB17:
	call	_ZStlsIcSt11char_traitsIcESaIcEERSt13basic_ostreamIT_T0_ES7_RKNSt7__cxx1112basic_stringIS4_S5_T1_EE@PLT
	leaq	.LC19(%rip), %rsi
	movq	%rax, %rdi
	call	_ZStlsISt11char_traitsIcEERSt13basic_ostreamIcT_ES5_PKc@PLT
	movq	%rax, %rdx
	movq	-88(%rbp), %rax
	movq	40(%rax), %rax
	addq	$16, %rax
	movq	%rax, %rsi
	movq	%rdx, %rdi
	call	_ZStlsIcSt11char_traitsIcESaIcEERSt13basic_ostreamIT_T0_ES7_RKNSt7__cxx1112basic_stringIS4_S5_T1_EE@PLT
	leaq	.LC20(%rip), %rsi
	movq	%rax, %rdi
	call	_ZStlsISt11char_traitsIcEERSt13basic_ostreamIcT_ES5_PKc@PLT
.LEHE17:
	leaq	-64(%rbp), %rax
	movq	%rax, %rdi
	call	_ZNSt7__cxx1112basic_stringIcSt11char_traitsIcESaIcEED1Ev@PLT
	movq	-88(%rbp), %rax
	movq	40(%rax), %rax
	movl	$6, 8(%rax)
	movq	-72(%rbp), %rdx
	movl	-76(%rbp), %eax
	movl	%eax, %esi
	leaq	registerDescriptor(%rip), %rdi
.LEHB18:
	call	_ZN18RegisterDescriptor6modifyE8RegisterP16SymbolTableEntry
	jmp	.L135
.L144:
	movq	-88(%rbp), %rax
	movl	4(%rax), %eax
	testl	%eax, %eax
	je	.L145
	movq	-88(%rbp), %rax
	movq	48(%rax), %rax
	movl	(%rax), %eax
	cmpl	$2, %eax
	je	.L145
	movq	-88(%rbp), %rax
	movl	76(%rax), %eax
	cmpl	$-1, %eax
	jne	.L145
	movq	-88(%rbp), %rax
	movq	48(%rax), %rax
	movl	8(%rax), %eax
	movl	%eax, -76(%rbp)
	cmpl	$6, -76(%rbp)
	je	.L145
	leaq	.LC18(%rip), %rsi
	leaq	myfile(%rip), %rdi
	call	_ZStlsISt11char_traitsIcEERSt13basic_ostreamIcT_ES5_PKc@PLT
	movq	%rax, %rbx
	leaq	-64(%rbp), %rax
	movl	-76(%rbp), %edx
	movl	%edx, %esi
	movq	%rax, %rdi
	call	_Z7reg2strB5cxx118Register
.LEHE18:
	leaq	-64(%rbp), %rax
	movq	%rax, %rsi
	movq	%rbx, %rdi
.LEHB19:
	call	_ZStlsIcSt11char_traitsIcESaIcEERSt13basic_ostreamIT_T0_ES7_RKNSt7__cxx1112basic_stringIS4_S5_T1_EE@PLT
	leaq	.LC19(%rip), %rsi
	movq	%rax, %rdi
	call	_ZStlsISt11char_traitsIcEERSt13basic_ostreamIcT_ES5_PKc@PLT
	movq	%rax, %rdx
	movq	-88(%rbp), %rax
	movq	48(%rax), %rax
	addq	$16, %rax
	movq	%rax, %rsi
	movq	%rdx, %rdi
	call	_ZStlsIcSt11char_traitsIcESaIcEERSt13basic_ostreamIT_T0_ES7_RKNSt7__cxx1112basic_stringIS4_S5_T1_EE@PLT
	leaq	.LC20(%rip), %rsi
	movq	%rax, %rdi
	call	_ZStlsISt11char_traitsIcEERSt13basic_ostreamIcT_ES5_PKc@PLT
.LEHE19:
	leaq	-64(%rbp), %rax
	movq	%rax, %rdi
	call	_ZNSt7__cxx1112basic_stringIcSt11char_traitsIcESaIcEED1Ev@PLT
	movq	-88(%rbp), %rax
	movq	48(%rax), %rax
	movl	$6, 8(%rax)
	movq	-72(%rbp), %rdx
	movl	-76(%rbp), %eax
	movl	%eax, %esi
	leaq	registerDescriptor(%rip), %rdi
.LEHB20:
	call	_ZN18RegisterDescriptor6modifyE8RegisterP16SymbolTableEntry
	jmp	.L135
.L145:
	leaq	registerDescriptor(%rip), %rdi
	call	_ZN18RegisterDescriptor17findEmptyRegisterEv
	movl	%eax, -76(%rbp)
	cmpl	$6, -76(%rbp)
	jne	.L146
	movl	$0, %esi
	leaq	registerDescriptor(%rip), %rdi
	call	_ZN18RegisterDescriptor26getFarthestNextUseRegisterEb
	movl	%eax, -76(%rbp)
	leaq	.LC18(%rip), %rsi
	leaq	myfile(%rip), %rdi
	call	_ZStlsISt11char_traitsIcEERSt13basic_ostreamIcT_ES5_PKc@PLT
	movq	%rax, %rbx
	leaq	-64(%rbp), %rax
	movl	-76(%rbp), %edx
	movl	%edx, %esi
	movq	%rax, %rdi
	call	_Z7reg2strB5cxx118Register
.LEHE20:
	leaq	-64(%rbp), %rax
	movq	%rax, %rsi
	movq	%rbx, %rdi
.LEHB21:
	call	_ZStlsIcSt11char_traitsIcESaIcEERSt13basic_ostreamIT_T0_ES7_RKNSt7__cxx1112basic_stringIS4_S5_T1_EE@PLT
	leaq	.LC19(%rip), %rsi
	movq	%rax, %rdi
	call	_ZStlsISt11char_traitsIcEERSt13basic_ostreamIcT_ES5_PKc@PLT
	movq	%rax, %rbx
	movl	-76(%rbp), %eax
	movl	%eax, %esi
	leaq	registerDescriptor(%rip), %rdi
	call	_ZN18RegisterDescriptor6lookupE8Register
	addq	$16, %rax
	movq	%rax, %rsi
	movq	%rbx, %rdi
	call	_ZStlsIcSt11char_traitsIcESaIcEERSt13basic_ostreamIT_T0_ES7_RKNSt7__cxx1112basic_stringIS4_S5_T1_EE@PLT
	leaq	.LC20(%rip), %rsi
	movq	%rax, %rdi
	call	_ZStlsISt11char_traitsIcEERSt13basic_ostreamIcT_ES5_PKc@PLT
.LEHE21:
	leaq	-64(%rbp), %rax
	movq	%rax, %rdi
	call	_ZNSt7__cxx1112basic_stringIcSt11char_traitsIcESaIcEED1Ev@PLT
	movl	-76(%rbp), %eax
	movl	%eax, %esi
	leaq	registerDescriptor(%rip), %rdi
.LEHB22:
	call	_ZN18RegisterDescriptor6lookupE8Register
	movl	$6, 8(%rax)
	movq	-72(%rbp), %rdx
	movl	-76(%rbp), %eax
	movl	%eax, %esi
	leaq	registerDescriptor(%rip), %rdi
	call	_ZN18RegisterDescriptor6modifyE8RegisterP16SymbolTableEntry
	jmp	.L135
.L146:
	movq	-72(%rbp), %rdx
	movl	-76(%rbp), %eax
	movl	%eax, %esi
	leaq	registerDescriptor(%rip), %rdi
	call	_ZN18RegisterDescriptor6modifyE8RegisterP16SymbolTableEntry
	jmp	.L135
.L153:
	movq	%rax, %rbx
	leaq	-64(%rbp), %rax
	movq	%rax, %rdi
	call	_ZNSt7__cxx1112basic_stringIcSt11char_traitsIcESaIcEED1Ev@PLT
	movq	%rbx, %rax
	movq	%rax, %rdi
	call	_Unwind_Resume@PLT
.L154:
	movq	%rax, %rbx
	leaq	-64(%rbp), %rax
	movq	%rax, %rdi
	call	_ZNSt7__cxx1112basic_stringIcSt11char_traitsIcESaIcEED1Ev@PLT
	movq	%rbx, %rax
	movq	%rax, %rdi
	call	_Unwind_Resume@PLT
.L155:
	movq	%rax, %rbx
	leaq	-64(%rbp), %rax
	movq	%rax, %rdi
	call	_ZNSt7__cxx1112basic_stringIcSt11char_traitsIcESaIcEED1Ev@PLT
	movq	%rbx, %rax
	movq	%rax, %rdi
	call	_Unwind_Resume@PLT
.L156:
	movq	%rax, %rbx
	leaq	-64(%rbp), %rax
	movq	%rax, %rdi
	call	_ZNSt7__cxx1112basic_stringIcSt11char_traitsIcESaIcEED1Ev@PLT
	movq	%rbx, %rax
	movq	%rax, %rdi
	call	_Unwind_Resume@PLT
.L157:
	movq	%rax, %rbx
	leaq	-64(%rbp), %rax
	movq	%rax, %rdi
	call	_ZNSt7__cxx1112basic_stringIcSt11char_traitsIcESaIcEED1Ev@PLT
	movq	%rbx, %rax
	movq	%rax, %rdi
	call	_Unwind_Resume@PLT
.LEHE22:
.L135:
	movq	-24(%rbp), %rax
	xorq	%fs:40, %rax
	je	.L152
	call	__stack_chk_fail@PLT
.L152:
	addq	$88, %rsp
	popq	%rbx
	popq	%rbp
	.cfi_def_cfa 7, 8
	ret
	.cfi_endproc
.LFE8247:
	.section	.gcc_except_table
.LLSDA8247:
	.byte	0xff
	.byte	0xff
	.byte	0x1
	.uleb128 .LLSDACSE8247-.LLSDACSB8247
.LLSDACSB8247:
	.uleb128 .LEHB12-.LFB8247
	.uleb128 .LEHE12-.LEHB12
	.uleb128 0
	.uleb128 0
	.uleb128 .LEHB13-.LFB8247
	.uleb128 .LEHE13-.LEHB13
	.uleb128 .L153-.LFB8247
	.uleb128 0
	.uleb128 .LEHB14-.LFB8247
	.uleb128 .LEHE14-.LEHB14
	.uleb128 0
	.uleb128 0
	.uleb128 .LEHB15-.LFB8247
	.uleb128 .LEHE15-.LEHB15
	.uleb128 .L154-.LFB8247
	.uleb128 0
	.uleb128 .LEHB16-.LFB8247
	.uleb128 .LEHE16-.LEHB16
	.uleb128 0
	.uleb128 0
	.uleb128 .LEHB17-.LFB8247
	.uleb128 .LEHE17-.LEHB17
	.uleb128 .L155-.LFB8247
	.uleb128 0
	.uleb128 .LEHB18-.LFB8247
	.uleb128 .LEHE18-.LEHB18
	.uleb128 0
	.uleb128 0
	.uleb128 .LEHB19-.LFB8247
	.uleb128 .LEHE19-.LEHB19
	.uleb128 .L156-.LFB8247
	.uleb128 0
	.uleb128 .LEHB20-.LFB8247
	.uleb128 .LEHE20-.LEHB20
	.uleb128 0
	.uleb128 0
	.uleb128 .LEHB21-.LFB8247
	.uleb128 .LEHE21-.LEHB21
	.uleb128 .L157-.LFB8247
	.uleb128 0
	.uleb128 .LEHB22-.LFB8247
	.uleb128 .LEHE22-.LEHB22
	.uleb128 0
	.uleb128 0
.LLSDACSE8247:
	.text
	.size	_Z16allocateRegisterP14Instruction3AC, .-_Z16allocateRegisterP14Instruction3AC
	.section	.text._ZN14Instruction3ACC2ERKS_,"axG",@progbits,_ZN14Instruction3ACC5ERKS_,comdat
	.align 2
	.weak	_ZN14Instruction3ACC2ERKS_
	.type	_ZN14Instruction3ACC2ERKS_, @function
_ZN14Instruction3ACC2ERKS_:
.LFB8250:
	.cfi_startproc
	pushq	%rbp
	.cfi_def_cfa_offset 16
	.cfi_offset 6, -16
	movq	%rsp, %rbp
	.cfi_def_cfa_register 6
	subq	$16, %rsp
	movq	%rdi, -8(%rbp)
	movq	%rsi, -16(%rbp)
	movq	-16(%rbp), %rax
	movl	(%rax), %edx
	movq	-8(%rbp), %rax
	movl	%edx, (%rax)
	movq	-16(%rbp), %rax
	movl	4(%rax), %edx
	movq	-8(%rbp), %rax
	movl	%edx, 4(%rax)
	movq	-8(%rbp), %rax
	addq	$8, %rax
	movq	-16(%rbp), %rdx
	addq	$8, %rdx
	movq	%rdx, %rsi
	movq	%rax, %rdi
	call	_ZNSt7__cxx1112basic_stringIcSt11char_traitsIcESaIcEEC1ERKS4_@PLT
	movq	-16(%rbp), %rax
	movq	40(%rax), %rdx
	movq	-8(%rbp), %rax
	movq	%rdx, 40(%rax)
	movq	-16(%rbp), %rax
	movq	48(%rax), %rdx
	movq	-8(%rbp), %rax
	movq	%rdx, 48(%rax)
	movq	-16(%rbp), %rax
	movq	56(%rax), %rdx
	movq	-8(%rbp), %rax
	movq	%rdx, 56(%rax)
	movq	-16(%rbp), %rax
	movl	64(%rax), %edx
	movq	-8(%rbp), %rax
	movl	%edx, 64(%rax)
	movq	-16(%rbp), %rax
	movzbl	68(%rax), %edx
	movq	-8(%rbp), %rax
	movb	%dl, 68(%rax)
	movq	-16(%rbp), %rax
	movzbl	69(%rax), %edx
	movq	-8(%rbp), %rax
	movb	%dl, 69(%rax)
	movq	-16(%rbp), %rax
	movzbl	70(%rax), %edx
	movq	-8(%rbp), %rax
	movb	%dl, 70(%rax)
	movq	-16(%rbp), %rax
	movl	72(%rax), %edx
	movq	-8(%rbp), %rax
	movl	%edx, 72(%rax)
	movq	-16(%rbp), %rax
	movl	76(%rax), %edx
	movq	-8(%rbp), %rax
	movl	%edx, 76(%rax)
	movq	-16(%rbp), %rax
	movl	80(%rax), %edx
	movq	-8(%rbp), %rax
	movl	%edx, 80(%rax)
	nop
	leave
	.cfi_def_cfa 7, 8
	ret
	.cfi_endproc
.LFE8250:
	.size	_ZN14Instruction3ACC2ERKS_, .-_ZN14Instruction3ACC2ERKS_
	.weak	_ZN14Instruction3ACC1ERKS_
	.set	_ZN14Instruction3ACC1ERKS_,_ZN14Instruction3ACC2ERKS_
	.section	.rodata
.LC21:
	.string	"result.s"
.LC22:
	.string	".data\n"
.LC23:
	.string	"\t"
.LC24:
	.string	":\t.quad 0\n"
.LC25:
	.string	"\tstr:\t.string \"%d\\n\"\n"
.LC26:
	.string	"\tscan_str:\t.string \"%d\"\n"
.LC27:
	.string	".text\n"
.LC28:
	.string	".globl main\n"
.LC29:
	.string	"main:\n"
.LC30:
	.string	"label"
.LC31:
	.string	":\n"
.LC32:
	.string	"$"
.LC33:
	.string	"+"
.LC34:
	.string	"\taddq "
.LC35:
	.string	"-"
.LC36:
	.string	"\tsubq "
.LC37:
	.string	"*"
.LC38:
	.string	"%RAX, "
.LC39:
	.string	"\tpushq %RAX"
.LC40:
	.string	"\tpushq %RDX"
.LC41:
	.string	", %RAX\n"
.LC42:
	.string	"\timulq "
.LC43:
	.string	"\tpopq %RDX"
.LC44:
	.string	"\tpopq %RAX"
.LC45:
	.string	"/"
.LC46:
	.string	"\tmovq $0, %RDX\n"
.LC47:
	.string	"\tidivq "
.LC48:
	.string	"%"
.LC49:
	.string	"%RDX, "
.LC50:
	.string	"\tcmp "
.LC51:
	.string	"\tjl "
.LC52:
	.string	"eq"
.LC53:
	.string	"\tje "
.LC54:
	.string	"neq"
.LC55:
	.string	"\tjne "
.LC56:
	.string	"geq"
.LC57:
	.string	"\tjge "
.LC58:
	.string	"lt"
.LC59:
	.string	"leq"
.LC60:
	.string	"\tjle "
.LC61:
	.string	"\tjmp "
.LC62:
	.string	"\tcall "
.LC63:
	.string	"\tpushq %RBP\n"
.LC64:
	.string	"\tpushq %RDI\n"
.LC65:
	.string	"\tpushq %RSI\n"
.LC66:
	.string	"\tmovq $scan_str, %RDI\n"
.LC67:
	.string	"\tmovq $"
.LC68:
	.string	", %RSI\n"
.LC69:
	.string	"\tcall scanf\n"
.LC70:
	.string	"\tpopq %RSI\n"
.LC71:
	.string	"\tpopq %RDI\n"
.LC72:
	.string	"\tpopq %RBP\n"
.LC73:
	.string	"\tpushq %RAX\n"
.LC74:
	.string	"\tmovq $str, %RDI\n"
.LC75:
	.string	"\tmovq $0, %RAX\n"
.LC76:
	.string	"\tpushq %R10\n"
.LC77:
	.string	"\tpushq %R11\n"
.LC78:
	.string	"\tcall printf\n"
.LC79:
	.string	"\tpopq %R11\n"
.LC80:
	.string	"\tpopq %R10\n"
.LC81:
	.string	"\tpopq %RAX\n"
.LC82:
	.string	"\tret\n"
	.text
	.globl	_Z12generateCodev
	.type	_Z12generateCodev, @function
_Z12generateCodev:
.LFB8248:
	.cfi_startproc
	.cfi_personality 0x9b,DW.ref.__gxx_personality_v0
	.cfi_lsda 0x1b,.LLSDA8248
	pushq	%rbp
	.cfi_def_cfa_offset 16
	.cfi_offset 6, -16
	movq	%rsp, %rbp
	.cfi_def_cfa_register 6
	pushq	%rbx
	subq	$216, %rsp
	.cfi_offset 3, -24
	movq	%fs:40, %rax
	movq	%rax, -24(%rbp)
	xorl	%eax, %eax
	movl	$32, %esi
	movl	$16, %edi
	call	_ZStorSt13_Ios_OpenmodeS_
	movl	%eax, %edx
	leaq	.LC21(%rip), %rsi
	leaq	myfile(%rip), %rdi
.LEHB23:
	call	_ZNSt14basic_ofstreamIcSt11char_traitsIcEE4openEPKcSt13_Ios_Openmode@PLT
	leaq	.LC22(%rip), %rsi
	leaq	myfile(%rip), %rdi
	call	_ZStlsISt11char_traitsIcEERSt13basic_ostreamIcT_ES5_PKc@PLT
	leaq	-176(%rbp), %rax
	leaq	symbolTable(%rip), %rsi
	movq	%rax, %rdi
	call	_ZN11SymbolTable14printTableIntsB5cxx11Ev
.LEHE23:
	movl	$0, -216(%rbp)
.L161:
	movl	-216(%rbp), %eax
	movslq	%eax, %rbx
	leaq	-176(%rbp), %rax
	movq	%rax, %rdi
	call	_ZNKSt6vectorINSt7__cxx1112basic_stringIcSt11char_traitsIcESaIcEEESaIS5_EE4sizeEv
	cmpq	%rax, %rbx
	setb	%al
	testb	%al, %al
	je	.L160
	leaq	.LC23(%rip), %rsi
	leaq	myfile(%rip), %rdi
.LEHB24:
	call	_ZStlsISt11char_traitsIcEERSt13basic_ostreamIcT_ES5_PKc@PLT
	movq	%rax, %rbx
	movl	-216(%rbp), %eax
	movslq	%eax, %rdx
	leaq	-176(%rbp), %rax
	movq	%rdx, %rsi
	movq	%rax, %rdi
	call	_ZNSt6vectorINSt7__cxx1112basic_stringIcSt11char_traitsIcESaIcEEESaIS5_EEixEm
	movq	%rax, %rsi
	movq	%rbx, %rdi
	call	_ZStlsIcSt11char_traitsIcESaIcEERSt13basic_ostreamIT_T0_ES7_RKNSt7__cxx1112basic_stringIS4_S5_T1_EE@PLT
	leaq	.LC24(%rip), %rsi
	movq	%rax, %rdi
	call	_ZStlsISt11char_traitsIcEERSt13basic_ostreamIcT_ES5_PKc@PLT
	addl	$1, -216(%rbp)
	jmp	.L161
.L160:
	leaq	.LC25(%rip), %rsi
	leaq	myfile(%rip), %rdi
	call	_ZStlsISt11char_traitsIcEERSt13basic_ostreamIcT_ES5_PKc@PLT
	leaq	.LC26(%rip), %rsi
	leaq	myfile(%rip), %rdi
	call	_ZStlsISt11char_traitsIcEERSt13basic_ostreamIcT_ES5_PKc@PLT
	leaq	.LC27(%rip), %rsi
	leaq	myfile(%rip), %rdi
	call	_ZStlsISt11char_traitsIcEERSt13basic_ostreamIcT_ES5_PKc@PLT
	leaq	.LC28(%rip), %rsi
	leaq	myfile(%rip), %rdi
	call	_ZStlsISt11char_traitsIcEERSt13basic_ostreamIcT_ES5_PKc@PLT
	leaq	.LC29(%rip), %rsi
	leaq	myfile(%rip), %rdi
	call	_ZStlsISt11char_traitsIcEERSt13basic_ostreamIcT_ES5_PKc@PLT
	movl	$0, -212(%rbp)
.L229:
	movl	noOfBasicBlocks(%rip), %eax
	cmpl	%eax, -212(%rbp)
	jge	.L162
	movl	-212(%rbp), %eax
	movslq	%eax, %rdx
	movq	%rdx, %rax
	addq	%rax, %rax
	addq	%rdx, %rax
	salq	$3, %rax
	movq	%rax, %rdx
	leaq	basicBlocks(%rip), %rax
	movq	(%rdx,%rax), %rax
	movq	%rax, -184(%rbp)
	movl	-212(%rbp), %eax
	movslq	%eax, %rdx
	movq	%rdx, %rax
	addq	%rax, %rax
	addq	%rdx, %rax
	salq	$3, %rax
	movq	%rax, %rdx
	leaq	8+basicBlocks(%rip), %rax
	movl	(%rdx,%rax), %eax
	movl	%eax, -204(%rbp)
	movl	-212(%rbp), %eax
	movslq	%eax, %rdx
	movq	%rdx, %rax
	addq	%rax, %rax
	addq	%rdx, %rax
	salq	$3, %rax
	movq	%rax, %rdx
	leaq	12+basicBlocks(%rip), %rax
	movl	(%rdx,%rax), %eax
	movl	%eax, -200(%rbp)
	leaq	.LC30(%rip), %rsi
	leaq	myfile(%rip), %rdi
	call	_ZStlsISt11char_traitsIcEERSt13basic_ostreamIcT_ES5_PKc@PLT
	movq	%rax, %rdx
	movl	-200(%rbp), %eax
	movl	%eax, %esi
	movq	%rdx, %rdi
	call	_ZNSolsEi@PLT
	leaq	.LC31(%rip), %rsi
	movq	%rax, %rdi
	call	_ZStlsISt11char_traitsIcEERSt13basic_ostreamIcT_ES5_PKc@PLT
	movl	$0, -208(%rbp)
.L228:
	movl	-208(%rbp), %eax
	cmpl	-204(%rbp), %eax
	jge	.L163
	movl	-208(%rbp), %eax
	movslq	%eax, %rdx
	movq	%rdx, %rax
	salq	$2, %rax
	addq	%rdx, %rax
	addq	%rax, %rax
	addq	%rdx, %rax
	salq	$3, %rax
	movq	%rax, %rdx
	movq	-184(%rbp), %rax
	addq	%rax, %rdx
	leaq	-112(%rbp), %rax
	movq	%rdx, %rsi
	movq	%rax, %rdi
	call	_ZN14Instruction3ACC1ERKS_
.LEHE24:
.LEHB25:
	call	_Z28printRegisterDescriptorTablev
	movl	-108(%rbp), %eax
	testl	%eax, %eax
	jne	.L164
	leaq	-112(%rbp), %rax
	movq	%rax, %rdi
	call	_Z16allocateRegisterP14Instruction3AC
	movq	-72(%rbp), %rax
	movl	(%rax), %eax
	testl	%eax, %eax
	jne	.L165
	leaq	.LC18(%rip), %rsi
	leaq	myfile(%rip), %rdi
	call	_ZStlsISt11char_traitsIcEERSt13basic_ostreamIcT_ES5_PKc@PLT
	movq	%rax, %rdx
	movq	-72(%rbp), %rax
	addq	$16, %rax
	movq	%rax, %rsi
	movq	%rdx, %rdi
	call	_ZStlsIcSt11char_traitsIcESaIcEERSt13basic_ostreamIT_T0_ES7_RKNSt7__cxx1112basic_stringIS4_S5_T1_EE@PLT
	leaq	.LC19(%rip), %rsi
	movq	%rax, %rdi
	call	_ZStlsISt11char_traitsIcEERSt13basic_ostreamIcT_ES5_PKc@PLT
	movq	%rax, %rbx
	movq	-56(%rbp), %rax
	movl	8(%rax), %edx
	leaq	-144(%rbp), %rax
	movl	%edx, %esi
	movq	%rax, %rdi
	call	_Z7reg2strB5cxx118Register
.LEHE25:
	leaq	-144(%rbp), %rax
	movq	%rax, %rsi
	movq	%rbx, %rdi
.LEHB26:
	call	_ZStlsIcSt11char_traitsIcESaIcEERSt13basic_ostreamIT_T0_ES7_RKNSt7__cxx1112basic_stringIS4_S5_T1_EE@PLT
	leaq	.LC20(%rip), %rsi
	movq	%rax, %rdi
	call	_ZStlsISt11char_traitsIcEERSt13basic_ostreamIcT_ES5_PKc@PLT
.LEHE26:
	leaq	-144(%rbp), %rax
	movq	%rax, %rdi
	call	_ZNSt7__cxx1112basic_stringIcSt11char_traitsIcESaIcEED1Ev@PLT
	jmp	.L166
.L165:
	leaq	.LC18(%rip), %rsi
	leaq	myfile(%rip), %rdi
.LEHB27:
	call	_ZStlsISt11char_traitsIcEERSt13basic_ostreamIcT_ES5_PKc@PLT
	leaq	.LC32(%rip), %rsi
	movq	%rax, %rdi
	call	_ZStlsISt11char_traitsIcEERSt13basic_ostreamIcT_ES5_PKc@PLT
	movq	%rax, %rdx
	movq	-72(%rbp), %rax
	movl	48(%rax), %eax
	movl	%eax, %esi
	movq	%rdx, %rdi
	call	_ZNSolsEi@PLT
	leaq	.LC19(%rip), %rsi
	movq	%rax, %rdi
	call	_ZStlsISt11char_traitsIcEERSt13basic_ostreamIcT_ES5_PKc@PLT
	movq	%rax, %rbx
	movq	-56(%rbp), %rax
	movl	8(%rax), %edx
	leaq	-144(%rbp), %rax
	movl	%edx, %esi
	movq	%rax, %rdi
	call	_Z7reg2strB5cxx118Register
.LEHE27:
	leaq	-144(%rbp), %rax
	movq	%rax, %rsi
	movq	%rbx, %rdi
.LEHB28:
	call	_ZStlsIcSt11char_traitsIcESaIcEERSt13basic_ostreamIT_T0_ES7_RKNSt7__cxx1112basic_stringIS4_S5_T1_EE@PLT
	leaq	.LC20(%rip), %rsi
	movq	%rax, %rdi
	call	_ZStlsISt11char_traitsIcEERSt13basic_ostreamIcT_ES5_PKc@PLT
.LEHE28:
	leaq	-144(%rbp), %rax
	movq	%rax, %rdi
	call	_ZNSt7__cxx1112basic_stringIcSt11char_traitsIcESaIcEED1Ev@PLT
.L166:
	leaq	.LC18(%rip), %rsi
	leaq	myfile(%rip), %rdi
.LEHB29:
	call	_ZStlsISt11char_traitsIcEERSt13basic_ostreamIcT_ES5_PKc@PLT
	movq	%rax, %rbx
	movq	-56(%rbp), %rax
	movl	8(%rax), %edx
	leaq	-144(%rbp), %rax
	movl	%edx, %esi
	movq	%rax, %rdi
	call	_Z7reg2strB5cxx118Register
.LEHE29:
	leaq	-144(%rbp), %rax
	movq	%rax, %rsi
	movq	%rbx, %rdi
.LEHB30:
	call	_ZStlsIcSt11char_traitsIcESaIcEERSt13basic_ostreamIT_T0_ES7_RKNSt7__cxx1112basic_stringIS4_S5_T1_EE@PLT
	leaq	.LC19(%rip), %rsi
	movq	%rax, %rdi
	call	_ZStlsISt11char_traitsIcEERSt13basic_ostreamIcT_ES5_PKc@PLT
	movq	%rax, %rdx
	movq	-56(%rbp), %rax
	addq	$16, %rax
	movq	%rax, %rsi
	movq	%rdx, %rdi
	call	_ZStlsIcSt11char_traitsIcESaIcEERSt13basic_ostreamIT_T0_ES7_RKNSt7__cxx1112basic_stringIS4_S5_T1_EE@PLT
	leaq	.LC20(%rip), %rsi
	movq	%rax, %rdi
	call	_ZStlsISt11char_traitsIcEERSt13basic_ostreamIcT_ES5_PKc@PLT
.LEHE30:
	leaq	-144(%rbp), %rax
	movq	%rax, %rdi
	call	_ZNSt7__cxx1112basic_stringIcSt11char_traitsIcESaIcEED1Ev@PLT
	leaq	.LC20(%rip), %rsi
	leaq	myfile(%rip), %rdi
.LEHB31:
	call	_ZStlsISt11char_traitsIcEERSt13basic_ostreamIcT_ES5_PKc@PLT
	jmp	.L167
.L164:
	movl	-108(%rbp), %eax
	cmpl	$1, %eax
	jne	.L168
	leaq	-112(%rbp), %rax
	movq	%rax, %rdi
	call	_Z16allocateRegisterP14Instruction3AC
	leaq	-112(%rbp), %rax
	addq	$8, %rax
	leaq	.LC33(%rip), %rsi
	movq	%rax, %rdi
	call	_ZSteqIcSt11char_traitsIcESaIcEEbRKNSt7__cxx1112basic_stringIT_T0_T1_EEPKS5_
	testb	%al, %al
	je	.L169
	movq	-72(%rbp), %rax
	movl	(%rax), %eax
	testl	%eax, %eax
	jne	.L170
	movq	-64(%rbp), %rax
	movl	(%rax), %eax
	testl	%eax, %eax
	jne	.L171
	leaq	.LC18(%rip), %rsi
	leaq	myfile(%rip), %rdi
	call	_ZStlsISt11char_traitsIcEERSt13basic_ostreamIcT_ES5_PKc@PLT
	movq	%rax, %rdx
	movq	-72(%rbp), %rax
	addq	$16, %rax
	movq	%rax, %rsi
	movq	%rdx, %rdi
	call	_ZStlsIcSt11char_traitsIcESaIcEERSt13basic_ostreamIT_T0_ES7_RKNSt7__cxx1112basic_stringIS4_S5_T1_EE@PLT
	leaq	.LC19(%rip), %rsi
	movq	%rax, %rdi
	call	_ZStlsISt11char_traitsIcEERSt13basic_ostreamIcT_ES5_PKc@PLT
	movq	%rax, %rbx
	movq	-56(%rbp), %rax
	movl	8(%rax), %edx
	leaq	-144(%rbp), %rax
	movl	%edx, %esi
	movq	%rax, %rdi
	call	_Z7reg2strB5cxx118Register
.LEHE31:
	leaq	-144(%rbp), %rax
	movq	%rax, %rsi
	movq	%rbx, %rdi
.LEHB32:
	call	_ZStlsIcSt11char_traitsIcESaIcEERSt13basic_ostreamIT_T0_ES7_RKNSt7__cxx1112basic_stringIS4_S5_T1_EE@PLT
	leaq	.LC20(%rip), %rsi
	movq	%rax, %rdi
	call	_ZStlsISt11char_traitsIcEERSt13basic_ostreamIcT_ES5_PKc@PLT
.LEHE32:
	leaq	-144(%rbp), %rax
	movq	%rax, %rdi
	call	_ZNSt7__cxx1112basic_stringIcSt11char_traitsIcESaIcEED1Ev@PLT
	leaq	.LC34(%rip), %rsi
	leaq	myfile(%rip), %rdi
.LEHB33:
	call	_ZStlsISt11char_traitsIcEERSt13basic_ostreamIcT_ES5_PKc@PLT
	movq	%rax, %rdx
	movq	-64(%rbp), %rax
	addq	$16, %rax
	movq	%rax, %rsi
	movq	%rdx, %rdi
	call	_ZStlsIcSt11char_traitsIcESaIcEERSt13basic_ostreamIT_T0_ES7_RKNSt7__cxx1112basic_stringIS4_S5_T1_EE@PLT
	leaq	.LC19(%rip), %rsi
	movq	%rax, %rdi
	call	_ZStlsISt11char_traitsIcEERSt13basic_ostreamIcT_ES5_PKc@PLT
	movq	%rax, %rbx
	movq	-56(%rbp), %rax
	movl	8(%rax), %edx
	leaq	-144(%rbp), %rax
	movl	%edx, %esi
	movq	%rax, %rdi
	call	_Z7reg2strB5cxx118Register
.LEHE33:
	leaq	-144(%rbp), %rax
	movq	%rax, %rsi
	movq	%rbx, %rdi
.LEHB34:
	call	_ZStlsIcSt11char_traitsIcESaIcEERSt13basic_ostreamIT_T0_ES7_RKNSt7__cxx1112basic_stringIS4_S5_T1_EE@PLT
	leaq	.LC20(%rip), %rsi
	movq	%rax, %rdi
	call	_ZStlsISt11char_traitsIcEERSt13basic_ostreamIcT_ES5_PKc@PLT
.LEHE34:
	leaq	-144(%rbp), %rax
	movq	%rax, %rdi
	call	_ZNSt7__cxx1112basic_stringIcSt11char_traitsIcESaIcEED1Ev@PLT
	jmp	.L173
.L171:
	leaq	.LC18(%rip), %rsi
	leaq	myfile(%rip), %rdi
.LEHB35:
	call	_ZStlsISt11char_traitsIcEERSt13basic_ostreamIcT_ES5_PKc@PLT
	movq	%rax, %rdx
	movq	-72(%rbp), %rax
	addq	$16, %rax
	movq	%rax, %rsi
	movq	%rdx, %rdi
	call	_ZStlsIcSt11char_traitsIcESaIcEERSt13basic_ostreamIT_T0_ES7_RKNSt7__cxx1112basic_stringIS4_S5_T1_EE@PLT
	leaq	.LC19(%rip), %rsi
	movq	%rax, %rdi
	call	_ZStlsISt11char_traitsIcEERSt13basic_ostreamIcT_ES5_PKc@PLT
	movq	%rax, %rbx
	movq	-56(%rbp), %rax
	movl	8(%rax), %edx
	leaq	-144(%rbp), %rax
	movl	%edx, %esi
	movq	%rax, %rdi
	call	_Z7reg2strB5cxx118Register
.LEHE35:
	leaq	-144(%rbp), %rax
	movq	%rax, %rsi
	movq	%rbx, %rdi
.LEHB36:
	call	_ZStlsIcSt11char_traitsIcESaIcEERSt13basic_ostreamIT_T0_ES7_RKNSt7__cxx1112basic_stringIS4_S5_T1_EE@PLT
	leaq	.LC20(%rip), %rsi
	movq	%rax, %rdi
	call	_ZStlsISt11char_traitsIcEERSt13basic_ostreamIcT_ES5_PKc@PLT
.LEHE36:
	leaq	-144(%rbp), %rax
	movq	%rax, %rdi
	call	_ZNSt7__cxx1112basic_stringIcSt11char_traitsIcESaIcEED1Ev@PLT
	leaq	.LC34(%rip), %rsi
	leaq	myfile(%rip), %rdi
.LEHB37:
	call	_ZStlsISt11char_traitsIcEERSt13basic_ostreamIcT_ES5_PKc@PLT
	leaq	.LC32(%rip), %rsi
	movq	%rax, %rdi
	call	_ZStlsISt11char_traitsIcEERSt13basic_ostreamIcT_ES5_PKc@PLT
	movq	%rax, %rdx
	movq	-64(%rbp), %rax
	movl	48(%rax), %eax
	movl	%eax, %esi
	movq	%rdx, %rdi
	call	_ZNSolsEi@PLT
	leaq	.LC19(%rip), %rsi
	movq	%rax, %rdi
	call	_ZStlsISt11char_traitsIcEERSt13basic_ostreamIcT_ES5_PKc@PLT
	movq	%rax, %rbx
	movq	-56(%rbp), %rax
	movl	8(%rax), %edx
	leaq	-144(%rbp), %rax
	movl	%edx, %esi
	movq	%rax, %rdi
	call	_Z7reg2strB5cxx118Register
.LEHE37:
	leaq	-144(%rbp), %rax
	movq	%rax, %rsi
	movq	%rbx, %rdi
.LEHB38:
	call	_ZStlsIcSt11char_traitsIcESaIcEERSt13basic_ostreamIT_T0_ES7_RKNSt7__cxx1112basic_stringIS4_S5_T1_EE@PLT
	leaq	.LC20(%rip), %rsi
	movq	%rax, %rdi
	call	_ZStlsISt11char_traitsIcEERSt13basic_ostreamIcT_ES5_PKc@PLT
.LEHE38:
	leaq	-144(%rbp), %rax
	movq	%rax, %rdi
	call	_ZNSt7__cxx1112basic_stringIcSt11char_traitsIcESaIcEED1Ev@PLT
	jmp	.L173
.L170:
	movq	-64(%rbp), %rax
	movl	(%rax), %eax
	testl	%eax, %eax
	jne	.L174
	leaq	.LC18(%rip), %rsi
	leaq	myfile(%rip), %rdi
.LEHB39:
	call	_ZStlsISt11char_traitsIcEERSt13basic_ostreamIcT_ES5_PKc@PLT
	leaq	.LC32(%rip), %rsi
	movq	%rax, %rdi
	call	_ZStlsISt11char_traitsIcEERSt13basic_ostreamIcT_ES5_PKc@PLT
	movq	%rax, %rdx
	movq	-72(%rbp), %rax
	movl	48(%rax), %eax
	movl	%eax, %esi
	movq	%rdx, %rdi
	call	_ZNSolsEi@PLT
	leaq	.LC19(%rip), %rsi
	movq	%rax, %rdi
	call	_ZStlsISt11char_traitsIcEERSt13basic_ostreamIcT_ES5_PKc@PLT
	movq	%rax, %rbx
	movq	-56(%rbp), %rax
	movl	8(%rax), %edx
	leaq	-144(%rbp), %rax
	movl	%edx, %esi
	movq	%rax, %rdi
	call	_Z7reg2strB5cxx118Register
.LEHE39:
	leaq	-144(%rbp), %rax
	movq	%rax, %rsi
	movq	%rbx, %rdi
.LEHB40:
	call	_ZStlsIcSt11char_traitsIcESaIcEERSt13basic_ostreamIT_T0_ES7_RKNSt7__cxx1112basic_stringIS4_S5_T1_EE@PLT
	leaq	.LC20(%rip), %rsi
	movq	%rax, %rdi
	call	_ZStlsISt11char_traitsIcEERSt13basic_ostreamIcT_ES5_PKc@PLT
.LEHE40:
	leaq	-144(%rbp), %rax
	movq	%rax, %rdi
	call	_ZNSt7__cxx1112basic_stringIcSt11char_traitsIcESaIcEED1Ev@PLT
	leaq	.LC34(%rip), %rsi
	leaq	myfile(%rip), %rdi
.LEHB41:
	call	_ZStlsISt11char_traitsIcEERSt13basic_ostreamIcT_ES5_PKc@PLT
	movq	%rax, %rdx
	movq	-64(%rbp), %rax
	addq	$16, %rax
	movq	%rax, %rsi
	movq	%rdx, %rdi
	call	_ZStlsIcSt11char_traitsIcESaIcEERSt13basic_ostreamIT_T0_ES7_RKNSt7__cxx1112basic_stringIS4_S5_T1_EE@PLT
	leaq	.LC19(%rip), %rsi
	movq	%rax, %rdi
	call	_ZStlsISt11char_traitsIcEERSt13basic_ostreamIcT_ES5_PKc@PLT
	movq	%rax, %rbx
	movq	-56(%rbp), %rax
	movl	8(%rax), %edx
	leaq	-144(%rbp), %rax
	movl	%edx, %esi
	movq	%rax, %rdi
	call	_Z7reg2strB5cxx118Register
.LEHE41:
	leaq	-144(%rbp), %rax
	movq	%rax, %rsi
	movq	%rbx, %rdi
.LEHB42:
	call	_ZStlsIcSt11char_traitsIcESaIcEERSt13basic_ostreamIT_T0_ES7_RKNSt7__cxx1112basic_stringIS4_S5_T1_EE@PLT
	leaq	.LC20(%rip), %rsi
	movq	%rax, %rdi
	call	_ZStlsISt11char_traitsIcEERSt13basic_ostreamIcT_ES5_PKc@PLT
.LEHE42:
	leaq	-144(%rbp), %rax
	movq	%rax, %rdi
	call	_ZNSt7__cxx1112basic_stringIcSt11char_traitsIcESaIcEED1Ev@PLT
	jmp	.L173
.L174:
	leaq	.LC18(%rip), %rsi
	leaq	myfile(%rip), %rdi
.LEHB43:
	call	_ZStlsISt11char_traitsIcEERSt13basic_ostreamIcT_ES5_PKc@PLT
	leaq	.LC32(%rip), %rsi
	movq	%rax, %rdi
	call	_ZStlsISt11char_traitsIcEERSt13basic_ostreamIcT_ES5_PKc@PLT
	movq	%rax, %rdx
	movq	-72(%rbp), %rax
	movl	48(%rax), %eax
	movl	%eax, %esi
	movq	%rdx, %rdi
	call	_ZNSolsEi@PLT
	leaq	.LC19(%rip), %rsi
	movq	%rax, %rdi
	call	_ZStlsISt11char_traitsIcEERSt13basic_ostreamIcT_ES5_PKc@PLT
	movq	%rax, %rbx
	movq	-56(%rbp), %rax
	movl	8(%rax), %edx
	leaq	-144(%rbp), %rax
	movl	%edx, %esi
	movq	%rax, %rdi
	call	_Z7reg2strB5cxx118Register
.LEHE43:
	leaq	-144(%rbp), %rax
	movq	%rax, %rsi
	movq	%rbx, %rdi
.LEHB44:
	call	_ZStlsIcSt11char_traitsIcESaIcEERSt13basic_ostreamIT_T0_ES7_RKNSt7__cxx1112basic_stringIS4_S5_T1_EE@PLT
	leaq	.LC20(%rip), %rsi
	movq	%rax, %rdi
	call	_ZStlsISt11char_traitsIcEERSt13basic_ostreamIcT_ES5_PKc@PLT
.LEHE44:
	leaq	-144(%rbp), %rax
	movq	%rax, %rdi
	call	_ZNSt7__cxx1112basic_stringIcSt11char_traitsIcESaIcEED1Ev@PLT
	leaq	.LC34(%rip), %rsi
	leaq	myfile(%rip), %rdi
.LEHB45:
	call	_ZStlsISt11char_traitsIcEERSt13basic_ostreamIcT_ES5_PKc@PLT
	leaq	.LC32(%rip), %rsi
	movq	%rax, %rdi
	call	_ZStlsISt11char_traitsIcEERSt13basic_ostreamIcT_ES5_PKc@PLT
	movq	%rax, %rdx
	movq	-64(%rbp), %rax
	movl	48(%rax), %eax
	movl	%eax, %esi
	movq	%rdx, %rdi
	call	_ZNSolsEi@PLT
	leaq	.LC19(%rip), %rsi
	movq	%rax, %rdi
	call	_ZStlsISt11char_traitsIcEERSt13basic_ostreamIcT_ES5_PKc@PLT
	movq	%rax, %rbx
	movq	-56(%rbp), %rax
	movl	8(%rax), %edx
	leaq	-144(%rbp), %rax
	movl	%edx, %esi
	movq	%rax, %rdi
	call	_Z7reg2strB5cxx118Register
.LEHE45:
	leaq	-144(%rbp), %rax
	movq	%rax, %rsi
	movq	%rbx, %rdi
.LEHB46:
	call	_ZStlsIcSt11char_traitsIcESaIcEERSt13basic_ostreamIT_T0_ES7_RKNSt7__cxx1112basic_stringIS4_S5_T1_EE@PLT
	leaq	.LC20(%rip), %rsi
	movq	%rax, %rdi
	call	_ZStlsISt11char_traitsIcEERSt13basic_ostreamIcT_ES5_PKc@PLT
.LEHE46:
	leaq	-144(%rbp), %rax
	movq	%rax, %rdi
	call	_ZNSt7__cxx1112basic_stringIcSt11char_traitsIcESaIcEED1Ev@PLT
.L173:
	leaq	.LC18(%rip), %rsi
	leaq	myfile(%rip), %rdi
.LEHB47:
	call	_ZStlsISt11char_traitsIcEERSt13basic_ostreamIcT_ES5_PKc@PLT
	movq	%rax, %rbx
	movq	-56(%rbp), %rax
	movl	8(%rax), %edx
	leaq	-144(%rbp), %rax
	movl	%edx, %esi
	movq	%rax, %rdi
	call	_Z7reg2strB5cxx118Register
.LEHE47:
	leaq	-144(%rbp), %rax
	movq	%rax, %rsi
	movq	%rbx, %rdi
.LEHB48:
	call	_ZStlsIcSt11char_traitsIcESaIcEERSt13basic_ostreamIT_T0_ES7_RKNSt7__cxx1112basic_stringIS4_S5_T1_EE@PLT
	leaq	.LC19(%rip), %rsi
	movq	%rax, %rdi
	call	_ZStlsISt11char_traitsIcEERSt13basic_ostreamIcT_ES5_PKc@PLT
	movq	%rax, %rdx
	movq	-56(%rbp), %rax
	addq	$16, %rax
	movq	%rax, %rsi
	movq	%rdx, %rdi
	call	_ZStlsIcSt11char_traitsIcESaIcEERSt13basic_ostreamIT_T0_ES7_RKNSt7__cxx1112basic_stringIS4_S5_T1_EE@PLT
	leaq	.LC20(%rip), %rsi
	movq	%rax, %rdi
	call	_ZStlsISt11char_traitsIcEERSt13basic_ostreamIcT_ES5_PKc@PLT
.LEHE48:
	leaq	-144(%rbp), %rax
	movq	%rax, %rdi
	call	_ZNSt7__cxx1112basic_stringIcSt11char_traitsIcESaIcEED1Ev@PLT
	leaq	.LC20(%rip), %rsi
	leaq	myfile(%rip), %rdi
.LEHB49:
	call	_ZStlsISt11char_traitsIcEERSt13basic_ostreamIcT_ES5_PKc@PLT
	jmp	.L167
.L169:
	leaq	-112(%rbp), %rax
	addq	$8, %rax
	leaq	.LC35(%rip), %rsi
	movq	%rax, %rdi
	call	_ZSteqIcSt11char_traitsIcESaIcEEbRKNSt7__cxx1112basic_stringIT_T0_T1_EEPKS5_
	testb	%al, %al
	je	.L176
	movq	-72(%rbp), %rax
	movl	(%rax), %eax
	testl	%eax, %eax
	jne	.L177
	movq	-64(%rbp), %rax
	movl	(%rax), %eax
	testl	%eax, %eax
	jne	.L178
	leaq	.LC18(%rip), %rsi
	leaq	myfile(%rip), %rdi
	call	_ZStlsISt11char_traitsIcEERSt13basic_ostreamIcT_ES5_PKc@PLT
	movq	%rax, %rdx
	movq	-72(%rbp), %rax
	addq	$16, %rax
	movq	%rax, %rsi
	movq	%rdx, %rdi
	call	_ZStlsIcSt11char_traitsIcESaIcEERSt13basic_ostreamIT_T0_ES7_RKNSt7__cxx1112basic_stringIS4_S5_T1_EE@PLT
	leaq	.LC19(%rip), %rsi
	movq	%rax, %rdi
	call	_ZStlsISt11char_traitsIcEERSt13basic_ostreamIcT_ES5_PKc@PLT
	movq	%rax, %rbx
	movq	-56(%rbp), %rax
	movl	8(%rax), %edx
	leaq	-144(%rbp), %rax
	movl	%edx, %esi
	movq	%rax, %rdi
	call	_Z7reg2strB5cxx118Register
.LEHE49:
	leaq	-144(%rbp), %rax
	movq	%rax, %rsi
	movq	%rbx, %rdi
.LEHB50:
	call	_ZStlsIcSt11char_traitsIcESaIcEERSt13basic_ostreamIT_T0_ES7_RKNSt7__cxx1112basic_stringIS4_S5_T1_EE@PLT
	leaq	.LC20(%rip), %rsi
	movq	%rax, %rdi
	call	_ZStlsISt11char_traitsIcEERSt13basic_ostreamIcT_ES5_PKc@PLT
.LEHE50:
	leaq	-144(%rbp), %rax
	movq	%rax, %rdi
	call	_ZNSt7__cxx1112basic_stringIcSt11char_traitsIcESaIcEED1Ev@PLT
	leaq	.LC36(%rip), %rsi
	leaq	myfile(%rip), %rdi
.LEHB51:
	call	_ZStlsISt11char_traitsIcEERSt13basic_ostreamIcT_ES5_PKc@PLT
	movq	%rax, %rdx
	movq	-64(%rbp), %rax
	addq	$16, %rax
	movq	%rax, %rsi
	movq	%rdx, %rdi
	call	_ZStlsIcSt11char_traitsIcESaIcEERSt13basic_ostreamIT_T0_ES7_RKNSt7__cxx1112basic_stringIS4_S5_T1_EE@PLT
	leaq	.LC19(%rip), %rsi
	movq	%rax, %rdi
	call	_ZStlsISt11char_traitsIcEERSt13basic_ostreamIcT_ES5_PKc@PLT
	movq	%rax, %rbx
	movq	-56(%rbp), %rax
	movl	8(%rax), %edx
	leaq	-144(%rbp), %rax
	movl	%edx, %esi
	movq	%rax, %rdi
	call	_Z7reg2strB5cxx118Register
.LEHE51:
	leaq	-144(%rbp), %rax
	movq	%rax, %rsi
	movq	%rbx, %rdi
.LEHB52:
	call	_ZStlsIcSt11char_traitsIcESaIcEERSt13basic_ostreamIT_T0_ES7_RKNSt7__cxx1112basic_stringIS4_S5_T1_EE@PLT
	leaq	.LC20(%rip), %rsi
	movq	%rax, %rdi
	call	_ZStlsISt11char_traitsIcEERSt13basic_ostreamIcT_ES5_PKc@PLT
.LEHE52:
	leaq	-144(%rbp), %rax
	movq	%rax, %rdi
	call	_ZNSt7__cxx1112basic_stringIcSt11char_traitsIcESaIcEED1Ev@PLT
	jmp	.L180
.L178:
	leaq	.LC18(%rip), %rsi
	leaq	myfile(%rip), %rdi
.LEHB53:
	call	_ZStlsISt11char_traitsIcEERSt13basic_ostreamIcT_ES5_PKc@PLT
	movq	%rax, %rdx
	movq	-72(%rbp), %rax
	addq	$16, %rax
	movq	%rax, %rsi
	movq	%rdx, %rdi
	call	_ZStlsIcSt11char_traitsIcESaIcEERSt13basic_ostreamIT_T0_ES7_RKNSt7__cxx1112basic_stringIS4_S5_T1_EE@PLT
	leaq	.LC19(%rip), %rsi
	movq	%rax, %rdi
	call	_ZStlsISt11char_traitsIcEERSt13basic_ostreamIcT_ES5_PKc@PLT
	movq	%rax, %rbx
	movq	-56(%rbp), %rax
	movl	8(%rax), %edx
	leaq	-144(%rbp), %rax
	movl	%edx, %esi
	movq	%rax, %rdi
	call	_Z7reg2strB5cxx118Register
.LEHE53:
	leaq	-144(%rbp), %rax
	movq	%rax, %rsi
	movq	%rbx, %rdi
.LEHB54:
	call	_ZStlsIcSt11char_traitsIcESaIcEERSt13basic_ostreamIT_T0_ES7_RKNSt7__cxx1112basic_stringIS4_S5_T1_EE@PLT
	leaq	.LC20(%rip), %rsi
	movq	%rax, %rdi
	call	_ZStlsISt11char_traitsIcEERSt13basic_ostreamIcT_ES5_PKc@PLT
.LEHE54:
	leaq	-144(%rbp), %rax
	movq	%rax, %rdi
	call	_ZNSt7__cxx1112basic_stringIcSt11char_traitsIcESaIcEED1Ev@PLT
	leaq	.LC36(%rip), %rsi
	leaq	myfile(%rip), %rdi
.LEHB55:
	call	_ZStlsISt11char_traitsIcEERSt13basic_ostreamIcT_ES5_PKc@PLT
	leaq	.LC32(%rip), %rsi
	movq	%rax, %rdi
	call	_ZStlsISt11char_traitsIcEERSt13basic_ostreamIcT_ES5_PKc@PLT
	movq	%rax, %rdx
	movq	-64(%rbp), %rax
	movl	48(%rax), %eax
	movl	%eax, %esi
	movq	%rdx, %rdi
	call	_ZNSolsEi@PLT
	leaq	.LC19(%rip), %rsi
	movq	%rax, %rdi
	call	_ZStlsISt11char_traitsIcEERSt13basic_ostreamIcT_ES5_PKc@PLT
	movq	%rax, %rbx
	movq	-56(%rbp), %rax
	movl	8(%rax), %edx
	leaq	-144(%rbp), %rax
	movl	%edx, %esi
	movq	%rax, %rdi
	call	_Z7reg2strB5cxx118Register
.LEHE55:
	leaq	-144(%rbp), %rax
	movq	%rax, %rsi
	movq	%rbx, %rdi
.LEHB56:
	call	_ZStlsIcSt11char_traitsIcESaIcEERSt13basic_ostreamIT_T0_ES7_RKNSt7__cxx1112basic_stringIS4_S5_T1_EE@PLT
	leaq	.LC20(%rip), %rsi
	movq	%rax, %rdi
	call	_ZStlsISt11char_traitsIcEERSt13basic_ostreamIcT_ES5_PKc@PLT
.LEHE56:
	leaq	-144(%rbp), %rax
	movq	%rax, %rdi
	call	_ZNSt7__cxx1112basic_stringIcSt11char_traitsIcESaIcEED1Ev@PLT
	jmp	.L180
.L177:
	movq	-64(%rbp), %rax
	movl	(%rax), %eax
	testl	%eax, %eax
	jne	.L181
	leaq	.LC18(%rip), %rsi
	leaq	myfile(%rip), %rdi
.LEHB57:
	call	_ZStlsISt11char_traitsIcEERSt13basic_ostreamIcT_ES5_PKc@PLT
	leaq	.LC32(%rip), %rsi
	movq	%rax, %rdi
	call	_ZStlsISt11char_traitsIcEERSt13basic_ostreamIcT_ES5_PKc@PLT
	movq	%rax, %rdx
	movq	-72(%rbp), %rax
	movl	48(%rax), %eax
	movl	%eax, %esi
	movq	%rdx, %rdi
	call	_ZNSolsEi@PLT
	leaq	.LC19(%rip), %rsi
	movq	%rax, %rdi
	call	_ZStlsISt11char_traitsIcEERSt13basic_ostreamIcT_ES5_PKc@PLT
	movq	%rax, %rbx
	movq	-56(%rbp), %rax
	movl	8(%rax), %edx
	leaq	-144(%rbp), %rax
	movl	%edx, %esi
	movq	%rax, %rdi
	call	_Z7reg2strB5cxx118Register
.LEHE57:
	leaq	-144(%rbp), %rax
	movq	%rax, %rsi
	movq	%rbx, %rdi
.LEHB58:
	call	_ZStlsIcSt11char_traitsIcESaIcEERSt13basic_ostreamIT_T0_ES7_RKNSt7__cxx1112basic_stringIS4_S5_T1_EE@PLT
	leaq	.LC20(%rip), %rsi
	movq	%rax, %rdi
	call	_ZStlsISt11char_traitsIcEERSt13basic_ostreamIcT_ES5_PKc@PLT
.LEHE58:
	leaq	-144(%rbp), %rax
	movq	%rax, %rdi
	call	_ZNSt7__cxx1112basic_stringIcSt11char_traitsIcESaIcEED1Ev@PLT
	leaq	.LC36(%rip), %rsi
	leaq	myfile(%rip), %rdi
.LEHB59:
	call	_ZStlsISt11char_traitsIcEERSt13basic_ostreamIcT_ES5_PKc@PLT
	movq	%rax, %rdx
	movq	-64(%rbp), %rax
	addq	$16, %rax
	movq	%rax, %rsi
	movq	%rdx, %rdi
	call	_ZStlsIcSt11char_traitsIcESaIcEERSt13basic_ostreamIT_T0_ES7_RKNSt7__cxx1112basic_stringIS4_S5_T1_EE@PLT
	leaq	.LC19(%rip), %rsi
	movq	%rax, %rdi
	call	_ZStlsISt11char_traitsIcEERSt13basic_ostreamIcT_ES5_PKc@PLT
	movq	%rax, %rbx
	movq	-56(%rbp), %rax
	movl	8(%rax), %edx
	leaq	-144(%rbp), %rax
	movl	%edx, %esi
	movq	%rax, %rdi
	call	_Z7reg2strB5cxx118Register
.LEHE59:
	leaq	-144(%rbp), %rax
	movq	%rax, %rsi
	movq	%rbx, %rdi
.LEHB60:
	call	_ZStlsIcSt11char_traitsIcESaIcEERSt13basic_ostreamIT_T0_ES7_RKNSt7__cxx1112basic_stringIS4_S5_T1_EE@PLT
	leaq	.LC20(%rip), %rsi
	movq	%rax, %rdi
	call	_ZStlsISt11char_traitsIcEERSt13basic_ostreamIcT_ES5_PKc@PLT
.LEHE60:
	leaq	-144(%rbp), %rax
	movq	%rax, %rdi
	call	_ZNSt7__cxx1112basic_stringIcSt11char_traitsIcESaIcEED1Ev@PLT
	jmp	.L180
.L181:
	leaq	.LC18(%rip), %rsi
	leaq	myfile(%rip), %rdi
.LEHB61:
	call	_ZStlsISt11char_traitsIcEERSt13basic_ostreamIcT_ES5_PKc@PLT
	leaq	.LC32(%rip), %rsi
	movq	%rax, %rdi
	call	_ZStlsISt11char_traitsIcEERSt13basic_ostreamIcT_ES5_PKc@PLT
	movq	%rax, %rdx
	movq	-72(%rbp), %rax
	movl	48(%rax), %eax
	movl	%eax, %esi
	movq	%rdx, %rdi
	call	_ZNSolsEi@PLT
	leaq	.LC19(%rip), %rsi
	movq	%rax, %rdi
	call	_ZStlsISt11char_traitsIcEERSt13basic_ostreamIcT_ES5_PKc@PLT
	movq	%rax, %rbx
	movq	-56(%rbp), %rax
	movl	8(%rax), %edx
	leaq	-144(%rbp), %rax
	movl	%edx, %esi
	movq	%rax, %rdi
	call	_Z7reg2strB5cxx118Register
.LEHE61:
	leaq	-144(%rbp), %rax
	movq	%rax, %rsi
	movq	%rbx, %rdi
.LEHB62:
	call	_ZStlsIcSt11char_traitsIcESaIcEERSt13basic_ostreamIT_T0_ES7_RKNSt7__cxx1112basic_stringIS4_S5_T1_EE@PLT
	leaq	.LC20(%rip), %rsi
	movq	%rax, %rdi
	call	_ZStlsISt11char_traitsIcEERSt13basic_ostreamIcT_ES5_PKc@PLT
.LEHE62:
	leaq	-144(%rbp), %rax
	movq	%rax, %rdi
	call	_ZNSt7__cxx1112basic_stringIcSt11char_traitsIcESaIcEED1Ev@PLT
	leaq	.LC36(%rip), %rsi
	leaq	myfile(%rip), %rdi
.LEHB63:
	call	_ZStlsISt11char_traitsIcEERSt13basic_ostreamIcT_ES5_PKc@PLT
	leaq	.LC32(%rip), %rsi
	movq	%rax, %rdi
	call	_ZStlsISt11char_traitsIcEERSt13basic_ostreamIcT_ES5_PKc@PLT
	movq	%rax, %rdx
	movq	-64(%rbp), %rax
	movl	48(%rax), %eax
	movl	%eax, %esi
	movq	%rdx, %rdi
	call	_ZNSolsEi@PLT
	leaq	.LC19(%rip), %rsi
	movq	%rax, %rdi
	call	_ZStlsISt11char_traitsIcEERSt13basic_ostreamIcT_ES5_PKc@PLT
	movq	%rax, %rbx
	movq	-56(%rbp), %rax
	movl	8(%rax), %edx
	leaq	-144(%rbp), %rax
	movl	%edx, %esi
	movq	%rax, %rdi
	call	_Z7reg2strB5cxx118Register
.LEHE63:
	leaq	-144(%rbp), %rax
	movq	%rax, %rsi
	movq	%rbx, %rdi
.LEHB64:
	call	_ZStlsIcSt11char_traitsIcESaIcEERSt13basic_ostreamIT_T0_ES7_RKNSt7__cxx1112basic_stringIS4_S5_T1_EE@PLT
	leaq	.LC20(%rip), %rsi
	movq	%rax, %rdi
	call	_ZStlsISt11char_traitsIcEERSt13basic_ostreamIcT_ES5_PKc@PLT
.LEHE64:
	leaq	-144(%rbp), %rax
	movq	%rax, %rdi
	call	_ZNSt7__cxx1112basic_stringIcSt11char_traitsIcESaIcEED1Ev@PLT
.L180:
	leaq	.LC18(%rip), %rsi
	leaq	myfile(%rip), %rdi
.LEHB65:
	call	_ZStlsISt11char_traitsIcEERSt13basic_ostreamIcT_ES5_PKc@PLT
	movq	%rax, %rbx
	movq	-56(%rbp), %rax
	movl	8(%rax), %edx
	leaq	-144(%rbp), %rax
	movl	%edx, %esi
	movq	%rax, %rdi
	call	_Z7reg2strB5cxx118Register
.LEHE65:
	leaq	-144(%rbp), %rax
	movq	%rax, %rsi
	movq	%rbx, %rdi
.LEHB66:
	call	_ZStlsIcSt11char_traitsIcESaIcEERSt13basic_ostreamIT_T0_ES7_RKNSt7__cxx1112basic_stringIS4_S5_T1_EE@PLT
	leaq	.LC19(%rip), %rsi
	movq	%rax, %rdi
	call	_ZStlsISt11char_traitsIcEERSt13basic_ostreamIcT_ES5_PKc@PLT
	movq	%rax, %rdx
	movq	-56(%rbp), %rax
	addq	$16, %rax
	movq	%rax, %rsi
	movq	%rdx, %rdi
	call	_ZStlsIcSt11char_traitsIcESaIcEERSt13basic_ostreamIT_T0_ES7_RKNSt7__cxx1112basic_stringIS4_S5_T1_EE@PLT
	leaq	.LC20(%rip), %rsi
	movq	%rax, %rdi
	call	_ZStlsISt11char_traitsIcEERSt13basic_ostreamIcT_ES5_PKc@PLT
.LEHE66:
	leaq	-144(%rbp), %rax
	movq	%rax, %rdi
	call	_ZNSt7__cxx1112basic_stringIcSt11char_traitsIcESaIcEED1Ev@PLT
	leaq	.LC20(%rip), %rsi
	leaq	myfile(%rip), %rdi
.LEHB67:
	call	_ZStlsISt11char_traitsIcEERSt13basic_ostreamIcT_ES5_PKc@PLT
	jmp	.L167
.L176:
	leaq	-112(%rbp), %rax
	addq	$8, %rax
	leaq	.LC37(%rip), %rsi
	movq	%rax, %rdi
	call	_ZSteqIcSt11char_traitsIcESaIcEEbRKNSt7__cxx1112basic_stringIT_T0_T1_EEPKS5_
	testb	%al, %al
	je	.L182
	movq	-56(%rbp), %rax
	movl	8(%rax), %eax
	testl	%eax, %eax
	jne	.L183
	leaq	registerDescriptor(%rip), %rdi
	call	_ZN18RegisterDescriptor17findEmptyRegisterEv
	movl	%eax, -188(%rbp)
	cmpl	$6, -188(%rbp)
	jne	.L184
	movl	$1, %esi
	leaq	registerDescriptor(%rip), %rdi
	call	_ZN18RegisterDescriptor26getFarthestNextUseRegisterEb
	movl	%eax, -188(%rbp)
	leaq	.LC18(%rip), %rsi
	leaq	myfile(%rip), %rdi
	call	_ZStlsISt11char_traitsIcEERSt13basic_ostreamIcT_ES5_PKc@PLT
	movq	%rax, %rbx
	leaq	-144(%rbp), %rax
	movl	-188(%rbp), %edx
	movl	%edx, %esi
	movq	%rax, %rdi
	call	_Z7reg2strB5cxx118Register
.LEHE67:
	leaq	-144(%rbp), %rax
	movq	%rax, %rsi
	movq	%rbx, %rdi
.LEHB68:
	call	_ZStlsIcSt11char_traitsIcESaIcEERSt13basic_ostreamIT_T0_ES7_RKNSt7__cxx1112basic_stringIS4_S5_T1_EE@PLT
	leaq	.LC19(%rip), %rsi
	movq	%rax, %rdi
	call	_ZStlsISt11char_traitsIcEERSt13basic_ostreamIcT_ES5_PKc@PLT
	movq	%rax, %rbx
	movl	-188(%rbp), %eax
	movl	%eax, %esi
	leaq	registerDescriptor(%rip), %rdi
	call	_ZN18RegisterDescriptor6lookupE8Register
	addq	$16, %rax
	movq	%rax, %rsi
	movq	%rbx, %rdi
	call	_ZStlsIcSt11char_traitsIcESaIcEERSt13basic_ostreamIT_T0_ES7_RKNSt7__cxx1112basic_stringIS4_S5_T1_EE@PLT
	leaq	.LC20(%rip), %rsi
	movq	%rax, %rdi
	call	_ZStlsISt11char_traitsIcEERSt13basic_ostreamIcT_ES5_PKc@PLT
.LEHE68:
	leaq	-144(%rbp), %rax
	movq	%rax, %rdi
	call	_ZNSt7__cxx1112basic_stringIcSt11char_traitsIcESaIcEED1Ev@PLT
	movl	-188(%rbp), %eax
	movl	%eax, %esi
	leaq	registerDescriptor(%rip), %rdi
.LEHB69:
	call	_ZN18RegisterDescriptor6lookupE8Register
	movl	$6, 8(%rax)
	movq	-56(%rbp), %rdx
	movl	-188(%rbp), %eax
	movl	%eax, %esi
	leaq	registerDescriptor(%rip), %rdi
	call	_ZN18RegisterDescriptor6modifyE8RegisterP16SymbolTableEntry
	jmp	.L185
.L184:
	movq	-56(%rbp), %rdx
	movl	-188(%rbp), %eax
	movl	%eax, %esi
	leaq	registerDescriptor(%rip), %rdi
	call	_ZN18RegisterDescriptor6modifyE8RegisterP16SymbolTableEntry
.L185:
	leaq	.LC18(%rip), %rsi
	leaq	myfile(%rip), %rdi
	call	_ZStlsISt11char_traitsIcEERSt13basic_ostreamIcT_ES5_PKc@PLT
	leaq	.LC38(%rip), %rsi
	movq	%rax, %rdi
	call	_ZStlsISt11char_traitsIcEERSt13basic_ostreamIcT_ES5_PKc@PLT
	movq	%rax, %rbx
	movq	-56(%rbp), %rax
	movl	8(%rax), %edx
	leaq	-144(%rbp), %rax
	movl	%edx, %esi
	movq	%rax, %rdi
	call	_Z7reg2strB5cxx118Register
.LEHE69:
	leaq	-144(%rbp), %rax
	movq	%rax, %rsi
	movq	%rbx, %rdi
.LEHB70:
	call	_ZStlsIcSt11char_traitsIcESaIcEERSt13basic_ostreamIT_T0_ES7_RKNSt7__cxx1112basic_stringIS4_S5_T1_EE@PLT
	leaq	.LC20(%rip), %rsi
	movq	%rax, %rdi
	call	_ZStlsISt11char_traitsIcEERSt13basic_ostreamIcT_ES5_PKc@PLT
.LEHE70:
	leaq	-144(%rbp), %rax
	movq	%rax, %rdi
	call	_ZNSt7__cxx1112basic_stringIcSt11char_traitsIcESaIcEED1Ev@PLT
.L183:
	leaq	.LC39(%rip), %rsi
	leaq	myfile(%rip), %rdi
.LEHB71:
	call	_ZStlsISt11char_traitsIcEERSt13basic_ostreamIcT_ES5_PKc@PLT
	leaq	.LC20(%rip), %rsi
	movq	%rax, %rdi
	call	_ZStlsISt11char_traitsIcEERSt13basic_ostreamIcT_ES5_PKc@PLT
	leaq	.LC40(%rip), %rsi
	leaq	myfile(%rip), %rdi
	call	_ZStlsISt11char_traitsIcEERSt13basic_ostreamIcT_ES5_PKc@PLT
	leaq	.LC20(%rip), %rsi
	movq	%rax, %rdi
	call	_ZStlsISt11char_traitsIcEERSt13basic_ostreamIcT_ES5_PKc@PLT
	movq	-72(%rbp), %rax
	movl	(%rax), %eax
	testl	%eax, %eax
	jne	.L186
	leaq	.LC18(%rip), %rsi
	leaq	myfile(%rip), %rdi
	call	_ZStlsISt11char_traitsIcEERSt13basic_ostreamIcT_ES5_PKc@PLT
	movq	%rax, %rdx
	movq	-72(%rbp), %rax
	addq	$16, %rax
	movq	%rax, %rsi
	movq	%rdx, %rdi
	call	_ZStlsIcSt11char_traitsIcESaIcEERSt13basic_ostreamIT_T0_ES7_RKNSt7__cxx1112basic_stringIS4_S5_T1_EE@PLT
	leaq	.LC41(%rip), %rsi
	movq	%rax, %rdi
	call	_ZStlsISt11char_traitsIcEERSt13basic_ostreamIcT_ES5_PKc@PLT
	jmp	.L187
.L186:
	leaq	.LC18(%rip), %rsi
	leaq	myfile(%rip), %rdi
	call	_ZStlsISt11char_traitsIcEERSt13basic_ostreamIcT_ES5_PKc@PLT
	leaq	.LC32(%rip), %rsi
	movq	%rax, %rdi
	call	_ZStlsISt11char_traitsIcEERSt13basic_ostreamIcT_ES5_PKc@PLT
	movq	%rax, %rdx
	movq	-72(%rbp), %rax
	movl	48(%rax), %eax
	movl	%eax, %esi
	movq	%rdx, %rdi
	call	_ZNSolsEi@PLT
	leaq	.LC41(%rip), %rsi
	movq	%rax, %rdi
	call	_ZStlsISt11char_traitsIcEERSt13basic_ostreamIcT_ES5_PKc@PLT
.L187:
	movq	-64(%rbp), %rax
	movl	(%rax), %eax
	testl	%eax, %eax
	jne	.L188
	leaq	.LC18(%rip), %rsi
	leaq	myfile(%rip), %rdi
	call	_ZStlsISt11char_traitsIcEERSt13basic_ostreamIcT_ES5_PKc@PLT
	movq	%rax, %rdx
	movq	-64(%rbp), %rax
	addq	$16, %rax
	movq	%rax, %rsi
	movq	%rdx, %rdi
	call	_ZStlsIcSt11char_traitsIcESaIcEERSt13basic_ostreamIT_T0_ES7_RKNSt7__cxx1112basic_stringIS4_S5_T1_EE@PLT
	leaq	.LC19(%rip), %rsi
	movq	%rax, %rdi
	call	_ZStlsISt11char_traitsIcEERSt13basic_ostreamIcT_ES5_PKc@PLT
	movq	%rax, %rbx
	movq	-56(%rbp), %rax
	movl	8(%rax), %edx
	leaq	-144(%rbp), %rax
	movl	%edx, %esi
	movq	%rax, %rdi
	call	_Z7reg2strB5cxx118Register
.LEHE71:
	leaq	-144(%rbp), %rax
	movq	%rax, %rsi
	movq	%rbx, %rdi
.LEHB72:
	call	_ZStlsIcSt11char_traitsIcESaIcEERSt13basic_ostreamIT_T0_ES7_RKNSt7__cxx1112basic_stringIS4_S5_T1_EE@PLT
	leaq	.LC20(%rip), %rsi
	movq	%rax, %rdi
	call	_ZStlsISt11char_traitsIcEERSt13basic_ostreamIcT_ES5_PKc@PLT
.LEHE72:
	leaq	-144(%rbp), %rax
	movq	%rax, %rdi
	call	_ZNSt7__cxx1112basic_stringIcSt11char_traitsIcESaIcEED1Ev@PLT
	jmp	.L189
.L188:
	leaq	.LC18(%rip), %rsi
	leaq	myfile(%rip), %rdi
.LEHB73:
	call	_ZStlsISt11char_traitsIcEERSt13basic_ostreamIcT_ES5_PKc@PLT
	leaq	.LC32(%rip), %rsi
	movq	%rax, %rdi
	call	_ZStlsISt11char_traitsIcEERSt13basic_ostreamIcT_ES5_PKc@PLT
	movq	%rax, %rdx
	movq	-64(%rbp), %rax
	movl	48(%rax), %eax
	movl	%eax, %esi
	movq	%rdx, %rdi
	call	_ZNSolsEi@PLT
	leaq	.LC19(%rip), %rsi
	movq	%rax, %rdi
	call	_ZStlsISt11char_traitsIcEERSt13basic_ostreamIcT_ES5_PKc@PLT
	movq	%rax, %rbx
	movq	-56(%rbp), %rax
	movl	8(%rax), %edx
	leaq	-144(%rbp), %rax
	movl	%edx, %esi
	movq	%rax, %rdi
	call	_Z7reg2strB5cxx118Register
.LEHE73:
	leaq	-144(%rbp), %rax
	movq	%rax, %rsi
	movq	%rbx, %rdi
.LEHB74:
	call	_ZStlsIcSt11char_traitsIcESaIcEERSt13basic_ostreamIT_T0_ES7_RKNSt7__cxx1112basic_stringIS4_S5_T1_EE@PLT
	leaq	.LC20(%rip), %rsi
	movq	%rax, %rdi
	call	_ZStlsISt11char_traitsIcEERSt13basic_ostreamIcT_ES5_PKc@PLT
.LEHE74:
	leaq	-144(%rbp), %rax
	movq	%rax, %rdi
	call	_ZNSt7__cxx1112basic_stringIcSt11char_traitsIcESaIcEED1Ev@PLT
.L189:
	leaq	.LC42(%rip), %rsi
	leaq	myfile(%rip), %rdi
.LEHB75:
	call	_ZStlsISt11char_traitsIcEERSt13basic_ostreamIcT_ES5_PKc@PLT
	movq	%rax, %rbx
	movq	-56(%rbp), %rax
	movl	8(%rax), %edx
	leaq	-144(%rbp), %rax
	movl	%edx, %esi
	movq	%rax, %rdi
	call	_Z7reg2strB5cxx118Register
.LEHE75:
	leaq	-144(%rbp), %rax
	movq	%rax, %rsi
	movq	%rbx, %rdi
.LEHB76:
	call	_ZStlsIcSt11char_traitsIcESaIcEERSt13basic_ostreamIT_T0_ES7_RKNSt7__cxx1112basic_stringIS4_S5_T1_EE@PLT
	leaq	.LC20(%rip), %rsi
	movq	%rax, %rdi
	call	_ZStlsISt11char_traitsIcEERSt13basic_ostreamIcT_ES5_PKc@PLT
.LEHE76:
	leaq	-144(%rbp), %rax
	movq	%rax, %rdi
	call	_ZNSt7__cxx1112basic_stringIcSt11char_traitsIcESaIcEED1Ev@PLT
	leaq	.LC18(%rip), %rsi
	leaq	myfile(%rip), %rdi
.LEHB77:
	call	_ZStlsISt11char_traitsIcEERSt13basic_ostreamIcT_ES5_PKc@PLT
	leaq	.LC38(%rip), %rsi
	movq	%rax, %rdi
	call	_ZStlsISt11char_traitsIcEERSt13basic_ostreamIcT_ES5_PKc@PLT
	movq	%rax, %rbx
	movq	-56(%rbp), %rax
	movl	8(%rax), %edx
	leaq	-144(%rbp), %rax
	movl	%edx, %esi
	movq	%rax, %rdi
	call	_Z7reg2strB5cxx118Register
.LEHE77:
	leaq	-144(%rbp), %rax
	movq	%rax, %rsi
	movq	%rbx, %rdi
.LEHB78:
	call	_ZStlsIcSt11char_traitsIcESaIcEERSt13basic_ostreamIT_T0_ES7_RKNSt7__cxx1112basic_stringIS4_S5_T1_EE@PLT
	leaq	.LC20(%rip), %rsi
	movq	%rax, %rdi
	call	_ZStlsISt11char_traitsIcEERSt13basic_ostreamIcT_ES5_PKc@PLT
.LEHE78:
	leaq	-144(%rbp), %rax
	movq	%rax, %rdi
	call	_ZNSt7__cxx1112basic_stringIcSt11char_traitsIcESaIcEED1Ev@PLT
	leaq	.LC18(%rip), %rsi
	leaq	myfile(%rip), %rdi
.LEHB79:
	call	_ZStlsISt11char_traitsIcEERSt13basic_ostreamIcT_ES5_PKc@PLT
	movq	%rax, %rbx
	movq	-56(%rbp), %rax
	movl	8(%rax), %edx
	leaq	-144(%rbp), %rax
	movl	%edx, %esi
	movq	%rax, %rdi
	call	_Z7reg2strB5cxx118Register
.LEHE79:
	leaq	-144(%rbp), %rax
	movq	%rax, %rsi
	movq	%rbx, %rdi
.LEHB80:
	call	_ZStlsIcSt11char_traitsIcESaIcEERSt13basic_ostreamIT_T0_ES7_RKNSt7__cxx1112basic_stringIS4_S5_T1_EE@PLT
	leaq	.LC19(%rip), %rsi
	movq	%rax, %rdi
	call	_ZStlsISt11char_traitsIcEERSt13basic_ostreamIcT_ES5_PKc@PLT
	movq	%rax, %rdx
	movq	-56(%rbp), %rax
	addq	$16, %rax
	movq	%rax, %rsi
	movq	%rdx, %rdi
	call	_ZStlsIcSt11char_traitsIcESaIcEERSt13basic_ostreamIT_T0_ES7_RKNSt7__cxx1112basic_stringIS4_S5_T1_EE@PLT
	leaq	.LC20(%rip), %rsi
	movq	%rax, %rdi
	call	_ZStlsISt11char_traitsIcEERSt13basic_ostreamIcT_ES5_PKc@PLT
.LEHE80:
	leaq	-144(%rbp), %rax
	movq	%rax, %rdi
	call	_ZNSt7__cxx1112basic_stringIcSt11char_traitsIcESaIcEED1Ev@PLT
	leaq	.LC43(%rip), %rsi
	leaq	myfile(%rip), %rdi
.LEHB81:
	call	_ZStlsISt11char_traitsIcEERSt13basic_ostreamIcT_ES5_PKc@PLT
	leaq	.LC20(%rip), %rsi
	movq	%rax, %rdi
	call	_ZStlsISt11char_traitsIcEERSt13basic_ostreamIcT_ES5_PKc@PLT
	leaq	.LC44(%rip), %rsi
	leaq	myfile(%rip), %rdi
	call	_ZStlsISt11char_traitsIcEERSt13basic_ostreamIcT_ES5_PKc@PLT
	leaq	.LC20(%rip), %rsi
	movq	%rax, %rdi
	call	_ZStlsISt11char_traitsIcEERSt13basic_ostreamIcT_ES5_PKc@PLT
	leaq	.LC20(%rip), %rsi
	leaq	myfile(%rip), %rdi
	call	_ZStlsISt11char_traitsIcEERSt13basic_ostreamIcT_ES5_PKc@PLT
	jmp	.L167
.L182:
	leaq	-112(%rbp), %rax
	addq	$8, %rax
	leaq	.LC45(%rip), %rsi
	movq	%rax, %rdi
	call	_ZSteqIcSt11char_traitsIcESaIcEEbRKNSt7__cxx1112basic_stringIT_T0_T1_EEPKS5_
	testb	%al, %al
	je	.L190
	movq	-56(%rbp), %rax
	movl	8(%rax), %eax
	testl	%eax, %eax
	jne	.L191
	leaq	registerDescriptor(%rip), %rdi
	call	_ZN18RegisterDescriptor17findEmptyRegisterEv
	movl	%eax, -192(%rbp)
	cmpl	$6, -192(%rbp)
	jne	.L192
	movl	$1, %esi
	leaq	registerDescriptor(%rip), %rdi
	call	_ZN18RegisterDescriptor26getFarthestNextUseRegisterEb
	movl	%eax, -192(%rbp)
	leaq	.LC18(%rip), %rsi
	leaq	myfile(%rip), %rdi
	call	_ZStlsISt11char_traitsIcEERSt13basic_ostreamIcT_ES5_PKc@PLT
	movq	%rax, %rbx
	leaq	-144(%rbp), %rax
	movl	-192(%rbp), %edx
	movl	%edx, %esi
	movq	%rax, %rdi
	call	_Z7reg2strB5cxx118Register
.LEHE81:
	leaq	-144(%rbp), %rax
	movq	%rax, %rsi
	movq	%rbx, %rdi
.LEHB82:
	call	_ZStlsIcSt11char_traitsIcESaIcEERSt13basic_ostreamIT_T0_ES7_RKNSt7__cxx1112basic_stringIS4_S5_T1_EE@PLT
	leaq	.LC19(%rip), %rsi
	movq	%rax, %rdi
	call	_ZStlsISt11char_traitsIcEERSt13basic_ostreamIcT_ES5_PKc@PLT
	movq	%rax, %rbx
	movl	-192(%rbp), %eax
	movl	%eax, %esi
	leaq	registerDescriptor(%rip), %rdi
	call	_ZN18RegisterDescriptor6lookupE8Register
	addq	$16, %rax
	movq	%rax, %rsi
	movq	%rbx, %rdi
	call	_ZStlsIcSt11char_traitsIcESaIcEERSt13basic_ostreamIT_T0_ES7_RKNSt7__cxx1112basic_stringIS4_S5_T1_EE@PLT
	leaq	.LC20(%rip), %rsi
	movq	%rax, %rdi
	call	_ZStlsISt11char_traitsIcEERSt13basic_ostreamIcT_ES5_PKc@PLT
.LEHE82:
	leaq	-144(%rbp), %rax
	movq	%rax, %rdi
	call	_ZNSt7__cxx1112basic_stringIcSt11char_traitsIcESaIcEED1Ev@PLT
	movl	-192(%rbp), %eax
	movl	%eax, %esi
	leaq	registerDescriptor(%rip), %rdi
.LEHB83:
	call	_ZN18RegisterDescriptor6lookupE8Register
	movl	$6, 8(%rax)
	movq	-56(%rbp), %rdx
	movl	-192(%rbp), %eax
	movl	%eax, %esi
	leaq	registerDescriptor(%rip), %rdi
	call	_ZN18RegisterDescriptor6modifyE8RegisterP16SymbolTableEntry
	jmp	.L193
.L192:
	movq	-56(%rbp), %rdx
	movl	-192(%rbp), %eax
	movl	%eax, %esi
	leaq	registerDescriptor(%rip), %rdi
	call	_ZN18RegisterDescriptor6modifyE8RegisterP16SymbolTableEntry
.L193:
	leaq	.LC18(%rip), %rsi
	leaq	myfile(%rip), %rdi
	call	_ZStlsISt11char_traitsIcEERSt13basic_ostreamIcT_ES5_PKc@PLT
	leaq	.LC38(%rip), %rsi
	movq	%rax, %rdi
	call	_ZStlsISt11char_traitsIcEERSt13basic_ostreamIcT_ES5_PKc@PLT
	movq	%rax, %rbx
	movq	-56(%rbp), %rax
	movl	8(%rax), %edx
	leaq	-144(%rbp), %rax
	movl	%edx, %esi
	movq	%rax, %rdi
	call	_Z7reg2strB5cxx118Register
.LEHE83:
	leaq	-144(%rbp), %rax
	movq	%rax, %rsi
	movq	%rbx, %rdi
.LEHB84:
	call	_ZStlsIcSt11char_traitsIcESaIcEERSt13basic_ostreamIT_T0_ES7_RKNSt7__cxx1112basic_stringIS4_S5_T1_EE@PLT
	leaq	.LC20(%rip), %rsi
	movq	%rax, %rdi
	call	_ZStlsISt11char_traitsIcEERSt13basic_ostreamIcT_ES5_PKc@PLT
.LEHE84:
	leaq	-144(%rbp), %rax
	movq	%rax, %rdi
	call	_ZNSt7__cxx1112basic_stringIcSt11char_traitsIcESaIcEED1Ev@PLT
.L191:
	leaq	.LC39(%rip), %rsi
	leaq	myfile(%rip), %rdi
.LEHB85:
	call	_ZStlsISt11char_traitsIcEERSt13basic_ostreamIcT_ES5_PKc@PLT
	leaq	.LC20(%rip), %rsi
	movq	%rax, %rdi
	call	_ZStlsISt11char_traitsIcEERSt13basic_ostreamIcT_ES5_PKc@PLT
	leaq	.LC40(%rip), %rsi
	leaq	myfile(%rip), %rdi
	call	_ZStlsISt11char_traitsIcEERSt13basic_ostreamIcT_ES5_PKc@PLT
	leaq	.LC20(%rip), %rsi
	movq	%rax, %rdi
	call	_ZStlsISt11char_traitsIcEERSt13basic_ostreamIcT_ES5_PKc@PLT
	movq	-72(%rbp), %rax
	movl	(%rax), %eax
	testl	%eax, %eax
	jne	.L194
	leaq	.LC18(%rip), %rsi
	leaq	myfile(%rip), %rdi
	call	_ZStlsISt11char_traitsIcEERSt13basic_ostreamIcT_ES5_PKc@PLT
	movq	%rax, %rdx
	movq	-72(%rbp), %rax
	addq	$16, %rax
	movq	%rax, %rsi
	movq	%rdx, %rdi
	call	_ZStlsIcSt11char_traitsIcESaIcEERSt13basic_ostreamIT_T0_ES7_RKNSt7__cxx1112basic_stringIS4_S5_T1_EE@PLT
	leaq	.LC41(%rip), %rsi
	movq	%rax, %rdi
	call	_ZStlsISt11char_traitsIcEERSt13basic_ostreamIcT_ES5_PKc@PLT
	jmp	.L195
.L194:
	leaq	.LC18(%rip), %rsi
	leaq	myfile(%rip), %rdi
	call	_ZStlsISt11char_traitsIcEERSt13basic_ostreamIcT_ES5_PKc@PLT
	leaq	.LC32(%rip), %rsi
	movq	%rax, %rdi
	call	_ZStlsISt11char_traitsIcEERSt13basic_ostreamIcT_ES5_PKc@PLT
	movq	%rax, %rdx
	movq	-72(%rbp), %rax
	movl	48(%rax), %eax
	movl	%eax, %esi
	movq	%rdx, %rdi
	call	_ZNSolsEi@PLT
	leaq	.LC41(%rip), %rsi
	movq	%rax, %rdi
	call	_ZStlsISt11char_traitsIcEERSt13basic_ostreamIcT_ES5_PKc@PLT
.L195:
	movq	-64(%rbp), %rax
	movl	(%rax), %eax
	testl	%eax, %eax
	jne	.L196
	leaq	.LC18(%rip), %rsi
	leaq	myfile(%rip), %rdi
	call	_ZStlsISt11char_traitsIcEERSt13basic_ostreamIcT_ES5_PKc@PLT
	movq	%rax, %rdx
	movq	-64(%rbp), %rax
	addq	$16, %rax
	movq	%rax, %rsi
	movq	%rdx, %rdi
	call	_ZStlsIcSt11char_traitsIcESaIcEERSt13basic_ostreamIT_T0_ES7_RKNSt7__cxx1112basic_stringIS4_S5_T1_EE@PLT
	leaq	.LC19(%rip), %rsi
	movq	%rax, %rdi
	call	_ZStlsISt11char_traitsIcEERSt13basic_ostreamIcT_ES5_PKc@PLT
	movq	%rax, %rbx
	movq	-56(%rbp), %rax
	movl	8(%rax), %edx
	leaq	-144(%rbp), %rax
	movl	%edx, %esi
	movq	%rax, %rdi
	call	_Z7reg2strB5cxx118Register
.LEHE85:
	leaq	-144(%rbp), %rax
	movq	%rax, %rsi
	movq	%rbx, %rdi
.LEHB86:
	call	_ZStlsIcSt11char_traitsIcESaIcEERSt13basic_ostreamIT_T0_ES7_RKNSt7__cxx1112basic_stringIS4_S5_T1_EE@PLT
	leaq	.LC20(%rip), %rsi
	movq	%rax, %rdi
	call	_ZStlsISt11char_traitsIcEERSt13basic_ostreamIcT_ES5_PKc@PLT
.LEHE86:
	leaq	-144(%rbp), %rax
	movq	%rax, %rdi
	call	_ZNSt7__cxx1112basic_stringIcSt11char_traitsIcESaIcEED1Ev@PLT
	jmp	.L197
.L196:
	leaq	.LC18(%rip), %rsi
	leaq	myfile(%rip), %rdi
.LEHB87:
	call	_ZStlsISt11char_traitsIcEERSt13basic_ostreamIcT_ES5_PKc@PLT
	leaq	.LC32(%rip), %rsi
	movq	%rax, %rdi
	call	_ZStlsISt11char_traitsIcEERSt13basic_ostreamIcT_ES5_PKc@PLT
	movq	%rax, %rdx
	movq	-64(%rbp), %rax
	movl	48(%rax), %eax
	movl	%eax, %esi
	movq	%rdx, %rdi
	call	_ZNSolsEi@PLT
	leaq	.LC19(%rip), %rsi
	movq	%rax, %rdi
	call	_ZStlsISt11char_traitsIcEERSt13basic_ostreamIcT_ES5_PKc@PLT
	movq	%rax, %rbx
	movq	-56(%rbp), %rax
	movl	8(%rax), %edx
	leaq	-144(%rbp), %rax
	movl	%edx, %esi
	movq	%rax, %rdi
	call	_Z7reg2strB5cxx118Register
.LEHE87:
	leaq	-144(%rbp), %rax
	movq	%rax, %rsi
	movq	%rbx, %rdi
.LEHB88:
	call	_ZStlsIcSt11char_traitsIcESaIcEERSt13basic_ostreamIT_T0_ES7_RKNSt7__cxx1112basic_stringIS4_S5_T1_EE@PLT
	leaq	.LC20(%rip), %rsi
	movq	%rax, %rdi
	call	_ZStlsISt11char_traitsIcEERSt13basic_ostreamIcT_ES5_PKc@PLT
.LEHE88:
	leaq	-144(%rbp), %rax
	movq	%rax, %rdi
	call	_ZNSt7__cxx1112basic_stringIcSt11char_traitsIcESaIcEED1Ev@PLT
.L197:
	leaq	.LC46(%rip), %rsi
	leaq	myfile(%rip), %rdi
.LEHB89:
	call	_ZStlsISt11char_traitsIcEERSt13basic_ostreamIcT_ES5_PKc@PLT
	leaq	.LC47(%rip), %rsi
	leaq	myfile(%rip), %rdi
	call	_ZStlsISt11char_traitsIcEERSt13basic_ostreamIcT_ES5_PKc@PLT
	movq	%rax, %rbx
	movq	-56(%rbp), %rax
	movl	8(%rax), %edx
	leaq	-144(%rbp), %rax
	movl	%edx, %esi
	movq	%rax, %rdi
	call	_Z7reg2strB5cxx118Register
.LEHE89:
	leaq	-144(%rbp), %rax
	movq	%rax, %rsi
	movq	%rbx, %rdi
.LEHB90:
	call	_ZStlsIcSt11char_traitsIcESaIcEERSt13basic_ostreamIT_T0_ES7_RKNSt7__cxx1112basic_stringIS4_S5_T1_EE@PLT
	leaq	.LC20(%rip), %rsi
	movq	%rax, %rdi
	call	_ZStlsISt11char_traitsIcEERSt13basic_ostreamIcT_ES5_PKc@PLT
.LEHE90:
	leaq	-144(%rbp), %rax
	movq	%rax, %rdi
	call	_ZNSt7__cxx1112basic_stringIcSt11char_traitsIcESaIcEED1Ev@PLT
	leaq	.LC18(%rip), %rsi
	leaq	myfile(%rip), %rdi
.LEHB91:
	call	_ZStlsISt11char_traitsIcEERSt13basic_ostreamIcT_ES5_PKc@PLT
	leaq	.LC38(%rip), %rsi
	movq	%rax, %rdi
	call	_ZStlsISt11char_traitsIcEERSt13basic_ostreamIcT_ES5_PKc@PLT
	movq	%rax, %rbx
	movq	-56(%rbp), %rax
	movl	8(%rax), %edx
	leaq	-144(%rbp), %rax
	movl	%edx, %esi
	movq	%rax, %rdi
	call	_Z7reg2strB5cxx118Register
.LEHE91:
	leaq	-144(%rbp), %rax
	movq	%rax, %rsi
	movq	%rbx, %rdi
.LEHB92:
	call	_ZStlsIcSt11char_traitsIcESaIcEERSt13basic_ostreamIT_T0_ES7_RKNSt7__cxx1112basic_stringIS4_S5_T1_EE@PLT
	leaq	.LC20(%rip), %rsi
	movq	%rax, %rdi
	call	_ZStlsISt11char_traitsIcEERSt13basic_ostreamIcT_ES5_PKc@PLT
.LEHE92:
	leaq	-144(%rbp), %rax
	movq	%rax, %rdi
	call	_ZNSt7__cxx1112basic_stringIcSt11char_traitsIcESaIcEED1Ev@PLT
	leaq	.LC18(%rip), %rsi
	leaq	myfile(%rip), %rdi
.LEHB93:
	call	_ZStlsISt11char_traitsIcEERSt13basic_ostreamIcT_ES5_PKc@PLT
	movq	%rax, %rbx
	movq	-56(%rbp), %rax
	movl	8(%rax), %edx
	leaq	-144(%rbp), %rax
	movl	%edx, %esi
	movq	%rax, %rdi
	call	_Z7reg2strB5cxx118Register
.LEHE93:
	leaq	-144(%rbp), %rax
	movq	%rax, %rsi
	movq	%rbx, %rdi
.LEHB94:
	call	_ZStlsIcSt11char_traitsIcESaIcEERSt13basic_ostreamIT_T0_ES7_RKNSt7__cxx1112basic_stringIS4_S5_T1_EE@PLT
	leaq	.LC19(%rip), %rsi
	movq	%rax, %rdi
	call	_ZStlsISt11char_traitsIcEERSt13basic_ostreamIcT_ES5_PKc@PLT
	movq	%rax, %rdx
	movq	-56(%rbp), %rax
	addq	$16, %rax
	movq	%rax, %rsi
	movq	%rdx, %rdi
	call	_ZStlsIcSt11char_traitsIcESaIcEERSt13basic_ostreamIT_T0_ES7_RKNSt7__cxx1112basic_stringIS4_S5_T1_EE@PLT
	leaq	.LC20(%rip), %rsi
	movq	%rax, %rdi
	call	_ZStlsISt11char_traitsIcEERSt13basic_ostreamIcT_ES5_PKc@PLT
.LEHE94:
	leaq	-144(%rbp), %rax
	movq	%rax, %rdi
	call	_ZNSt7__cxx1112basic_stringIcSt11char_traitsIcESaIcEED1Ev@PLT
	leaq	.LC43(%rip), %rsi
	leaq	myfile(%rip), %rdi
.LEHB95:
	call	_ZStlsISt11char_traitsIcEERSt13basic_ostreamIcT_ES5_PKc@PLT
	leaq	.LC20(%rip), %rsi
	movq	%rax, %rdi
	call	_ZStlsISt11char_traitsIcEERSt13basic_ostreamIcT_ES5_PKc@PLT
	leaq	.LC44(%rip), %rsi
	leaq	myfile(%rip), %rdi
	call	_ZStlsISt11char_traitsIcEERSt13basic_ostreamIcT_ES5_PKc@PLT
	leaq	.LC20(%rip), %rsi
	movq	%rax, %rdi
	call	_ZStlsISt11char_traitsIcEERSt13basic_ostreamIcT_ES5_PKc@PLT
	leaq	.LC20(%rip), %rsi
	leaq	myfile(%rip), %rdi
	call	_ZStlsISt11char_traitsIcEERSt13basic_ostreamIcT_ES5_PKc@PLT
	jmp	.L167
.L190:
	leaq	-112(%rbp), %rax
	addq	$8, %rax
	leaq	.LC48(%rip), %rsi
	movq	%rax, %rdi
	call	_ZSteqIcSt11char_traitsIcESaIcEEbRKNSt7__cxx1112basic_stringIT_T0_T1_EEPKS5_
	testb	%al, %al
	je	.L167
	movq	-56(%rbp), %rax
	movl	8(%rax), %eax
	testl	%eax, %eax
	jne	.L198
	leaq	registerDescriptor(%rip), %rdi
	call	_ZN18RegisterDescriptor17findEmptyRegisterEv
	movl	%eax, -196(%rbp)
	cmpl	$6, -196(%rbp)
	jne	.L199
	movl	$1, %esi
	leaq	registerDescriptor(%rip), %rdi
	call	_ZN18RegisterDescriptor26getFarthestNextUseRegisterEb
	movl	%eax, -196(%rbp)
	leaq	.LC18(%rip), %rsi
	leaq	myfile(%rip), %rdi
	call	_ZStlsISt11char_traitsIcEERSt13basic_ostreamIcT_ES5_PKc@PLT
	movq	%rax, %rbx
	leaq	-144(%rbp), %rax
	movl	-196(%rbp), %edx
	movl	%edx, %esi
	movq	%rax, %rdi
	call	_Z7reg2strB5cxx118Register
.LEHE95:
	leaq	-144(%rbp), %rax
	movq	%rax, %rsi
	movq	%rbx, %rdi
.LEHB96:
	call	_ZStlsIcSt11char_traitsIcESaIcEERSt13basic_ostreamIT_T0_ES7_RKNSt7__cxx1112basic_stringIS4_S5_T1_EE@PLT
	leaq	.LC19(%rip), %rsi
	movq	%rax, %rdi
	call	_ZStlsISt11char_traitsIcEERSt13basic_ostreamIcT_ES5_PKc@PLT
	movq	%rax, %rbx
	movl	-196(%rbp), %eax
	movl	%eax, %esi
	leaq	registerDescriptor(%rip), %rdi
	call	_ZN18RegisterDescriptor6lookupE8Register
	addq	$16, %rax
	movq	%rax, %rsi
	movq	%rbx, %rdi
	call	_ZStlsIcSt11char_traitsIcESaIcEERSt13basic_ostreamIT_T0_ES7_RKNSt7__cxx1112basic_stringIS4_S5_T1_EE@PLT
	leaq	.LC20(%rip), %rsi
	movq	%rax, %rdi
	call	_ZStlsISt11char_traitsIcEERSt13basic_ostreamIcT_ES5_PKc@PLT
.LEHE96:
	leaq	-144(%rbp), %rax
	movq	%rax, %rdi
	call	_ZNSt7__cxx1112basic_stringIcSt11char_traitsIcESaIcEED1Ev@PLT
	movl	-196(%rbp), %eax
	movl	%eax, %esi
	leaq	registerDescriptor(%rip), %rdi
.LEHB97:
	call	_ZN18RegisterDescriptor6lookupE8Register
	movl	$6, 8(%rax)
	movq	-56(%rbp), %rdx
	movl	-196(%rbp), %eax
	movl	%eax, %esi
	leaq	registerDescriptor(%rip), %rdi
	call	_ZN18RegisterDescriptor6modifyE8RegisterP16SymbolTableEntry
	jmp	.L200
.L199:
	movq	-56(%rbp), %rdx
	movl	-196(%rbp), %eax
	movl	%eax, %esi
	leaq	registerDescriptor(%rip), %rdi
	call	_ZN18RegisterDescriptor6modifyE8RegisterP16SymbolTableEntry
.L200:
	leaq	.LC18(%rip), %rsi
	leaq	myfile(%rip), %rdi
	call	_ZStlsISt11char_traitsIcEERSt13basic_ostreamIcT_ES5_PKc@PLT
	leaq	.LC38(%rip), %rsi
	movq	%rax, %rdi
	call	_ZStlsISt11char_traitsIcEERSt13basic_ostreamIcT_ES5_PKc@PLT
	movq	%rax, %rbx
	movq	-56(%rbp), %rax
	movl	8(%rax), %edx
	leaq	-144(%rbp), %rax
	movl	%edx, %esi
	movq	%rax, %rdi
	call	_Z7reg2strB5cxx118Register
.LEHE97:
	leaq	-144(%rbp), %rax
	movq	%rax, %rsi
	movq	%rbx, %rdi
.LEHB98:
	call	_ZStlsIcSt11char_traitsIcESaIcEERSt13basic_ostreamIT_T0_ES7_RKNSt7__cxx1112basic_stringIS4_S5_T1_EE@PLT
	leaq	.LC20(%rip), %rsi
	movq	%rax, %rdi
	call	_ZStlsISt11char_traitsIcEERSt13basic_ostreamIcT_ES5_PKc@PLT
.LEHE98:
	leaq	-144(%rbp), %rax
	movq	%rax, %rdi
	call	_ZNSt7__cxx1112basic_stringIcSt11char_traitsIcESaIcEED1Ev@PLT
.L198:
	leaq	.LC39(%rip), %rsi
	leaq	myfile(%rip), %rdi
.LEHB99:
	call	_ZStlsISt11char_traitsIcEERSt13basic_ostreamIcT_ES5_PKc@PLT
	leaq	.LC20(%rip), %rsi
	movq	%rax, %rdi
	call	_ZStlsISt11char_traitsIcEERSt13basic_ostreamIcT_ES5_PKc@PLT
	leaq	.LC40(%rip), %rsi
	leaq	myfile(%rip), %rdi
	call	_ZStlsISt11char_traitsIcEERSt13basic_ostreamIcT_ES5_PKc@PLT
	leaq	.LC20(%rip), %rsi
	movq	%rax, %rdi
	call	_ZStlsISt11char_traitsIcEERSt13basic_ostreamIcT_ES5_PKc@PLT
	movq	-72(%rbp), %rax
	movl	(%rax), %eax
	testl	%eax, %eax
	jne	.L201
	leaq	.LC18(%rip), %rsi
	leaq	myfile(%rip), %rdi
	call	_ZStlsISt11char_traitsIcEERSt13basic_ostreamIcT_ES5_PKc@PLT
	movq	%rax, %rdx
	movq	-72(%rbp), %rax
	addq	$16, %rax
	movq	%rax, %rsi
	movq	%rdx, %rdi
	call	_ZStlsIcSt11char_traitsIcESaIcEERSt13basic_ostreamIT_T0_ES7_RKNSt7__cxx1112basic_stringIS4_S5_T1_EE@PLT
	leaq	.LC41(%rip), %rsi
	movq	%rax, %rdi
	call	_ZStlsISt11char_traitsIcEERSt13basic_ostreamIcT_ES5_PKc@PLT
	jmp	.L202
.L201:
	leaq	.LC18(%rip), %rsi
	leaq	myfile(%rip), %rdi
	call	_ZStlsISt11char_traitsIcEERSt13basic_ostreamIcT_ES5_PKc@PLT
	leaq	.LC32(%rip), %rsi
	movq	%rax, %rdi
	call	_ZStlsISt11char_traitsIcEERSt13basic_ostreamIcT_ES5_PKc@PLT
	movq	%rax, %rdx
	movq	-72(%rbp), %rax
	movl	48(%rax), %eax
	movl	%eax, %esi
	movq	%rdx, %rdi
	call	_ZNSolsEi@PLT
	leaq	.LC41(%rip), %rsi
	movq	%rax, %rdi
	call	_ZStlsISt11char_traitsIcEERSt13basic_ostreamIcT_ES5_PKc@PLT
.L202:
	movq	-64(%rbp), %rax
	movl	(%rax), %eax
	testl	%eax, %eax
	jne	.L203
	leaq	.LC18(%rip), %rsi
	leaq	myfile(%rip), %rdi
	call	_ZStlsISt11char_traitsIcEERSt13basic_ostreamIcT_ES5_PKc@PLT
	movq	%rax, %rdx
	movq	-64(%rbp), %rax
	addq	$16, %rax
	movq	%rax, %rsi
	movq	%rdx, %rdi
	call	_ZStlsIcSt11char_traitsIcESaIcEERSt13basic_ostreamIT_T0_ES7_RKNSt7__cxx1112basic_stringIS4_S5_T1_EE@PLT
	leaq	.LC19(%rip), %rsi
	movq	%rax, %rdi
	call	_ZStlsISt11char_traitsIcEERSt13basic_ostreamIcT_ES5_PKc@PLT
	movq	%rax, %rbx
	movq	-56(%rbp), %rax
	movl	8(%rax), %edx
	leaq	-144(%rbp), %rax
	movl	%edx, %esi
	movq	%rax, %rdi
	call	_Z7reg2strB5cxx118Register
.LEHE99:
	leaq	-144(%rbp), %rax
	movq	%rax, %rsi
	movq	%rbx, %rdi
.LEHB100:
	call	_ZStlsIcSt11char_traitsIcESaIcEERSt13basic_ostreamIT_T0_ES7_RKNSt7__cxx1112basic_stringIS4_S5_T1_EE@PLT
	leaq	.LC20(%rip), %rsi
	movq	%rax, %rdi
	call	_ZStlsISt11char_traitsIcEERSt13basic_ostreamIcT_ES5_PKc@PLT
.LEHE100:
	leaq	-144(%rbp), %rax
	movq	%rax, %rdi
	call	_ZNSt7__cxx1112basic_stringIcSt11char_traitsIcESaIcEED1Ev@PLT
	jmp	.L204
.L203:
	leaq	.LC18(%rip), %rsi
	leaq	myfile(%rip), %rdi
.LEHB101:
	call	_ZStlsISt11char_traitsIcEERSt13basic_ostreamIcT_ES5_PKc@PLT
	leaq	.LC32(%rip), %rsi
	movq	%rax, %rdi
	call	_ZStlsISt11char_traitsIcEERSt13basic_ostreamIcT_ES5_PKc@PLT
	movq	%rax, %rdx
	movq	-64(%rbp), %rax
	movl	48(%rax), %eax
	movl	%eax, %esi
	movq	%rdx, %rdi
	call	_ZNSolsEi@PLT
	leaq	.LC19(%rip), %rsi
	movq	%rax, %rdi
	call	_ZStlsISt11char_traitsIcEERSt13basic_ostreamIcT_ES5_PKc@PLT
	movq	%rax, %rbx
	movq	-56(%rbp), %rax
	movl	8(%rax), %edx
	leaq	-144(%rbp), %rax
	movl	%edx, %esi
	movq	%rax, %rdi
	call	_Z7reg2strB5cxx118Register
.LEHE101:
	leaq	-144(%rbp), %rax
	movq	%rax, %rsi
	movq	%rbx, %rdi
.LEHB102:
	call	_ZStlsIcSt11char_traitsIcESaIcEERSt13basic_ostreamIT_T0_ES7_RKNSt7__cxx1112basic_stringIS4_S5_T1_EE@PLT
	leaq	.LC20(%rip), %rsi
	movq	%rax, %rdi
	call	_ZStlsISt11char_traitsIcEERSt13basic_ostreamIcT_ES5_PKc@PLT
.LEHE102:
	leaq	-144(%rbp), %rax
	movq	%rax, %rdi
	call	_ZNSt7__cxx1112basic_stringIcSt11char_traitsIcESaIcEED1Ev@PLT
.L204:
	leaq	.LC46(%rip), %rsi
	leaq	myfile(%rip), %rdi
.LEHB103:
	call	_ZStlsISt11char_traitsIcEERSt13basic_ostreamIcT_ES5_PKc@PLT
	leaq	.LC47(%rip), %rsi
	leaq	myfile(%rip), %rdi
	call	_ZStlsISt11char_traitsIcEERSt13basic_ostreamIcT_ES5_PKc@PLT
	movq	%rax, %rbx
	movq	-56(%rbp), %rax
	movl	8(%rax), %edx
	leaq	-144(%rbp), %rax
	movl	%edx, %esi
	movq	%rax, %rdi
	call	_Z7reg2strB5cxx118Register
.LEHE103:
	leaq	-144(%rbp), %rax
	movq	%rax, %rsi
	movq	%rbx, %rdi
.LEHB104:
	call	_ZStlsIcSt11char_traitsIcESaIcEERSt13basic_ostreamIT_T0_ES7_RKNSt7__cxx1112basic_stringIS4_S5_T1_EE@PLT
	leaq	.LC20(%rip), %rsi
	movq	%rax, %rdi
	call	_ZStlsISt11char_traitsIcEERSt13basic_ostreamIcT_ES5_PKc@PLT
.LEHE104:
	leaq	-144(%rbp), %rax
	movq	%rax, %rdi
	call	_ZNSt7__cxx1112basic_stringIcSt11char_traitsIcESaIcEED1Ev@PLT
	leaq	.LC18(%rip), %rsi
	leaq	myfile(%rip), %rdi
.LEHB105:
	call	_ZStlsISt11char_traitsIcEERSt13basic_ostreamIcT_ES5_PKc@PLT
	leaq	.LC49(%rip), %rsi
	movq	%rax, %rdi
	call	_ZStlsISt11char_traitsIcEERSt13basic_ostreamIcT_ES5_PKc@PLT
	movq	%rax, %rbx
	movq	-56(%rbp), %rax
	movl	8(%rax), %edx
	leaq	-144(%rbp), %rax
	movl	%edx, %esi
	movq	%rax, %rdi
	call	_Z7reg2strB5cxx118Register
.LEHE105:
	leaq	-144(%rbp), %rax
	movq	%rax, %rsi
	movq	%rbx, %rdi
.LEHB106:
	call	_ZStlsIcSt11char_traitsIcESaIcEERSt13basic_ostreamIT_T0_ES7_RKNSt7__cxx1112basic_stringIS4_S5_T1_EE@PLT
	leaq	.LC20(%rip), %rsi
	movq	%rax, %rdi
	call	_ZStlsISt11char_traitsIcEERSt13basic_ostreamIcT_ES5_PKc@PLT
.LEHE106:
	leaq	-144(%rbp), %rax
	movq	%rax, %rdi
	call	_ZNSt7__cxx1112basic_stringIcSt11char_traitsIcESaIcEED1Ev@PLT
	leaq	.LC18(%rip), %rsi
	leaq	myfile(%rip), %rdi
.LEHB107:
	call	_ZStlsISt11char_traitsIcEERSt13basic_ostreamIcT_ES5_PKc@PLT
	movq	%rax, %rbx
	movq	-56(%rbp), %rax
	movl	8(%rax), %edx
	leaq	-144(%rbp), %rax
	movl	%edx, %esi
	movq	%rax, %rdi
	call	_Z7reg2strB5cxx118Register
.LEHE107:
	leaq	-144(%rbp), %rax
	movq	%rax, %rsi
	movq	%rbx, %rdi
.LEHB108:
	call	_ZStlsIcSt11char_traitsIcESaIcEERSt13basic_ostreamIT_T0_ES7_RKNSt7__cxx1112basic_stringIS4_S5_T1_EE@PLT
	leaq	.LC19(%rip), %rsi
	movq	%rax, %rdi
	call	_ZStlsISt11char_traitsIcEERSt13basic_ostreamIcT_ES5_PKc@PLT
	movq	%rax, %rdx
	movq	-56(%rbp), %rax
	addq	$16, %rax
	movq	%rax, %rsi
	movq	%rdx, %rdi
	call	_ZStlsIcSt11char_traitsIcESaIcEERSt13basic_ostreamIT_T0_ES7_RKNSt7__cxx1112basic_stringIS4_S5_T1_EE@PLT
	leaq	.LC20(%rip), %rsi
	movq	%rax, %rdi
	call	_ZStlsISt11char_traitsIcEERSt13basic_ostreamIcT_ES5_PKc@PLT
.LEHE108:
	leaq	-144(%rbp), %rax
	movq	%rax, %rdi
	call	_ZNSt7__cxx1112basic_stringIcSt11char_traitsIcESaIcEED1Ev@PLT
	leaq	.LC43(%rip), %rsi
	leaq	myfile(%rip), %rdi
.LEHB109:
	call	_ZStlsISt11char_traitsIcEERSt13basic_ostreamIcT_ES5_PKc@PLT
	leaq	.LC20(%rip), %rsi
	movq	%rax, %rdi
	call	_ZStlsISt11char_traitsIcEERSt13basic_ostreamIcT_ES5_PKc@PLT
	leaq	.LC44(%rip), %rsi
	leaq	myfile(%rip), %rdi
	call	_ZStlsISt11char_traitsIcEERSt13basic_ostreamIcT_ES5_PKc@PLT
	leaq	.LC20(%rip), %rsi
	movq	%rax, %rdi
	call	_ZStlsISt11char_traitsIcEERSt13basic_ostreamIcT_ES5_PKc@PLT
	leaq	.LC20(%rip), %rsi
	leaq	myfile(%rip), %rdi
	call	_ZStlsISt11char_traitsIcEERSt13basic_ostreamIcT_ES5_PKc@PLT
	jmp	.L167
.L168:
	movl	-108(%rbp), %eax
	cmpl	$3, %eax
	jne	.L205
	leaq	-112(%rbp), %rax
	movq	%rax, %rdi
	call	_Z16allocateRegisterP14Instruction3AC
	leaq	-112(%rbp), %rax
	addq	$8, %rax
	leaq	.LC17(%rip), %rsi
	movq	%rax, %rdi
	call	_ZSteqIcSt11char_traitsIcESaIcEEbRKNSt7__cxx1112basic_stringIT_T0_T1_EEPKS5_
	testb	%al, %al
	je	.L206
	movq	-72(%rbp), %rax
	movl	(%rax), %eax
	testl	%eax, %eax
	jne	.L207
	movq	-64(%rbp), %rax
	movl	(%rax), %eax
	testl	%eax, %eax
	jne	.L208
	leaq	.LC50(%rip), %rsi
	leaq	myfile(%rip), %rdi
	call	_ZStlsISt11char_traitsIcEERSt13basic_ostreamIcT_ES5_PKc@PLT
	movq	%rax, %rdx
	movq	-72(%rbp), %rax
	addq	$16, %rax
	movq	%rax, %rsi
	movq	%rdx, %rdi
	call	_ZStlsIcSt11char_traitsIcESaIcEERSt13basic_ostreamIT_T0_ES7_RKNSt7__cxx1112basic_stringIS4_S5_T1_EE@PLT
	leaq	.LC19(%rip), %rsi
	movq	%rax, %rdi
	call	_ZStlsISt11char_traitsIcEERSt13basic_ostreamIcT_ES5_PKc@PLT
	movq	%rax, %rbx
	movq	-64(%rbp), %rax
	movl	8(%rax), %edx
	leaq	-144(%rbp), %rax
	movl	%edx, %esi
	movq	%rax, %rdi
	call	_Z7reg2strB5cxx118Register
.LEHE109:
	leaq	-144(%rbp), %rax
	movq	%rax, %rsi
	movq	%rbx, %rdi
.LEHB110:
	call	_ZStlsIcSt11char_traitsIcESaIcEERSt13basic_ostreamIT_T0_ES7_RKNSt7__cxx1112basic_stringIS4_S5_T1_EE@PLT
	leaq	.LC20(%rip), %rsi
	movq	%rax, %rdi
	call	_ZStlsISt11char_traitsIcEERSt13basic_ostreamIcT_ES5_PKc@PLT
.LEHE110:
	leaq	-144(%rbp), %rax
	movq	%rax, %rdi
	call	_ZNSt7__cxx1112basic_stringIcSt11char_traitsIcESaIcEED1Ev@PLT
	jmp	.L210
.L208:
	leaq	.LC50(%rip), %rsi
	leaq	myfile(%rip), %rdi
.LEHB111:
	call	_ZStlsISt11char_traitsIcEERSt13basic_ostreamIcT_ES5_PKc@PLT
	movq	%rax, %rdx
	movq	-72(%rbp), %rax
	addq	$16, %rax
	movq	%rax, %rsi
	movq	%rdx, %rdi
	call	_ZStlsIcSt11char_traitsIcESaIcEERSt13basic_ostreamIT_T0_ES7_RKNSt7__cxx1112basic_stringIS4_S5_T1_EE@PLT
	leaq	.LC19(%rip), %rsi
	movq	%rax, %rdi
	call	_ZStlsISt11char_traitsIcEERSt13basic_ostreamIcT_ES5_PKc@PLT
	leaq	.LC32(%rip), %rsi
	movq	%rax, %rdi
	call	_ZStlsISt11char_traitsIcEERSt13basic_ostreamIcT_ES5_PKc@PLT
	movq	%rax, %rdx
	movq	-64(%rbp), %rax
	movl	48(%rax), %eax
	movl	%eax, %esi
	movq	%rdx, %rdi
	call	_ZNSolsEi@PLT
	leaq	.LC20(%rip), %rsi
	movq	%rax, %rdi
	call	_ZStlsISt11char_traitsIcEERSt13basic_ostreamIcT_ES5_PKc@PLT
	jmp	.L210
.L207:
	movq	-64(%rbp), %rax
	movl	(%rax), %eax
	testl	%eax, %eax
	jne	.L211
	leaq	.LC50(%rip), %rsi
	leaq	myfile(%rip), %rdi
	call	_ZStlsISt11char_traitsIcEERSt13basic_ostreamIcT_ES5_PKc@PLT
	leaq	.LC32(%rip), %rsi
	movq	%rax, %rdi
	call	_ZStlsISt11char_traitsIcEERSt13basic_ostreamIcT_ES5_PKc@PLT
	movq	%rax, %rdx
	movq	-72(%rbp), %rax
	movl	48(%rax), %eax
	movl	%eax, %esi
	movq	%rdx, %rdi
	call	_ZNSolsEi@PLT
	leaq	.LC19(%rip), %rsi
	movq	%rax, %rdi
	call	_ZStlsISt11char_traitsIcEERSt13basic_ostreamIcT_ES5_PKc@PLT
	movq	%rax, %rbx
	movq	-64(%rbp), %rax
	movl	8(%rax), %edx
	leaq	-144(%rbp), %rax
	movl	%edx, %esi
	movq	%rax, %rdi
	call	_Z7reg2strB5cxx118Register
.LEHE111:
	leaq	-144(%rbp), %rax
	movq	%rax, %rsi
	movq	%rbx, %rdi
.LEHB112:
	call	_ZStlsIcSt11char_traitsIcESaIcEERSt13basic_ostreamIT_T0_ES7_RKNSt7__cxx1112basic_stringIS4_S5_T1_EE@PLT
	leaq	.LC20(%rip), %rsi
	movq	%rax, %rdi
	call	_ZStlsISt11char_traitsIcEERSt13basic_ostreamIcT_ES5_PKc@PLT
.LEHE112:
	leaq	-144(%rbp), %rax
	movq	%rax, %rdi
	call	_ZNSt7__cxx1112basic_stringIcSt11char_traitsIcESaIcEED1Ev@PLT
	jmp	.L210
.L211:
	leaq	.LC50(%rip), %rsi
	leaq	myfile(%rip), %rdi
.LEHB113:
	call	_ZStlsISt11char_traitsIcEERSt13basic_ostreamIcT_ES5_PKc@PLT
	leaq	.LC32(%rip), %rsi
	movq	%rax, %rdi
	call	_ZStlsISt11char_traitsIcEERSt13basic_ostreamIcT_ES5_PKc@PLT
	movq	%rax, %rdx
	movq	-72(%rbp), %rax
	movl	48(%rax), %eax
	movl	%eax, %esi
	movq	%rdx, %rdi
	call	_ZNSolsEi@PLT
	leaq	.LC19(%rip), %rsi
	movq	%rax, %rdi
	call	_ZStlsISt11char_traitsIcEERSt13basic_ostreamIcT_ES5_PKc@PLT
	leaq	.LC32(%rip), %rsi
	movq	%rax, %rdi
	call	_ZStlsISt11char_traitsIcEERSt13basic_ostreamIcT_ES5_PKc@PLT
	movq	%rax, %rdx
	movq	-64(%rbp), %rax
	movl	48(%rax), %eax
	movl	%eax, %esi
	movq	%rdx, %rdi
	call	_ZNSolsEi@PLT
	leaq	.LC20(%rip), %rsi
	movq	%rax, %rdi
	call	_ZStlsISt11char_traitsIcEERSt13basic_ostreamIcT_ES5_PKc@PLT
.L210:
	leaq	.LC51(%rip), %rsi
	leaq	myfile(%rip), %rdi
	call	_ZStlsISt11char_traitsIcEERSt13basic_ostreamIcT_ES5_PKc@PLT
	leaq	.LC30(%rip), %rsi
	movq	%rax, %rdi
	call	_ZStlsISt11char_traitsIcEERSt13basic_ostreamIcT_ES5_PKc@PLT
	movq	%rax, %rcx
	movl	-212(%rbp), %eax
	movslq	%eax, %rdx
	movq	%rdx, %rax
	addq	%rax, %rax
	addq	%rdx, %rax
	salq	$3, %rax
	movq	%rax, %rdx
	leaq	16+basicBlocks(%rip), %rax
	movl	(%rdx,%rax), %eax
	movl	%eax, %esi
	movq	%rcx, %rdi
	call	_ZNSolsEi@PLT
	leaq	.LC20(%rip), %rsi
	movq	%rax, %rdi
	call	_ZStlsISt11char_traitsIcEERSt13basic_ostreamIcT_ES5_PKc@PLT
	jmp	.L212
.L206:
	movq	-64(%rbp), %rax
	movl	(%rax), %eax
	testl	%eax, %eax
	jne	.L213
	movq	-72(%rbp), %rax
	movl	(%rax), %eax
	testl	%eax, %eax
	jne	.L214
	leaq	.LC50(%rip), %rsi
	leaq	myfile(%rip), %rdi
	call	_ZStlsISt11char_traitsIcEERSt13basic_ostreamIcT_ES5_PKc@PLT
	movq	%rax, %rdx
	movq	-64(%rbp), %rax
	addq	$16, %rax
	movq	%rax, %rsi
	movq	%rdx, %rdi
	call	_ZStlsIcSt11char_traitsIcESaIcEERSt13basic_ostreamIT_T0_ES7_RKNSt7__cxx1112basic_stringIS4_S5_T1_EE@PLT
	leaq	.LC19(%rip), %rsi
	movq	%rax, %rdi
	call	_ZStlsISt11char_traitsIcEERSt13basic_ostreamIcT_ES5_PKc@PLT
	movq	%rax, %rbx
	movq	-72(%rbp), %rax
	movl	8(%rax), %edx
	leaq	-144(%rbp), %rax
	movl	%edx, %esi
	movq	%rax, %rdi
	call	_Z7reg2strB5cxx118Register
.LEHE113:
	leaq	-144(%rbp), %rax
	movq	%rax, %rsi
	movq	%rbx, %rdi
.LEHB114:
	call	_ZStlsIcSt11char_traitsIcESaIcEERSt13basic_ostreamIT_T0_ES7_RKNSt7__cxx1112basic_stringIS4_S5_T1_EE@PLT
	leaq	.LC20(%rip), %rsi
	movq	%rax, %rdi
	call	_ZStlsISt11char_traitsIcEERSt13basic_ostreamIcT_ES5_PKc@PLT
.LEHE114:
	leaq	-144(%rbp), %rax
	movq	%rax, %rdi
	call	_ZNSt7__cxx1112basic_stringIcSt11char_traitsIcESaIcEED1Ev@PLT
	jmp	.L216
.L214:
	leaq	.LC50(%rip), %rsi
	leaq	myfile(%rip), %rdi
.LEHB115:
	call	_ZStlsISt11char_traitsIcEERSt13basic_ostreamIcT_ES5_PKc@PLT
	movq	%rax, %rdx
	movq	-64(%rbp), %rax
	addq	$16, %rax
	movq	%rax, %rsi
	movq	%rdx, %rdi
	call	_ZStlsIcSt11char_traitsIcESaIcEERSt13basic_ostreamIT_T0_ES7_RKNSt7__cxx1112basic_stringIS4_S5_T1_EE@PLT
	leaq	.LC19(%rip), %rsi
	movq	%rax, %rdi
	call	_ZStlsISt11char_traitsIcEERSt13basic_ostreamIcT_ES5_PKc@PLT
	leaq	.LC32(%rip), %rsi
	movq	%rax, %rdi
	call	_ZStlsISt11char_traitsIcEERSt13basic_ostreamIcT_ES5_PKc@PLT
	movq	%rax, %rdx
	movq	-72(%rbp), %rax
	movl	48(%rax), %eax
	movl	%eax, %esi
	movq	%rdx, %rdi
	call	_ZNSolsEi@PLT
	leaq	.LC20(%rip), %rsi
	movq	%rax, %rdi
	call	_ZStlsISt11char_traitsIcEERSt13basic_ostreamIcT_ES5_PKc@PLT
	jmp	.L216
.L213:
	movq	-72(%rbp), %rax
	movl	(%rax), %eax
	testl	%eax, %eax
	jne	.L217
	leaq	.LC50(%rip), %rsi
	leaq	myfile(%rip), %rdi
	call	_ZStlsISt11char_traitsIcEERSt13basic_ostreamIcT_ES5_PKc@PLT
	leaq	.LC32(%rip), %rsi
	movq	%rax, %rdi
	call	_ZStlsISt11char_traitsIcEERSt13basic_ostreamIcT_ES5_PKc@PLT
	movq	%rax, %rdx
	movq	-64(%rbp), %rax
	movl	48(%rax), %eax
	movl	%eax, %esi
	movq	%rdx, %rdi
	call	_ZNSolsEi@PLT
	leaq	.LC19(%rip), %rsi
	movq	%rax, %rdi
	call	_ZStlsISt11char_traitsIcEERSt13basic_ostreamIcT_ES5_PKc@PLT
	movq	%rax, %rbx
	movq	-72(%rbp), %rax
	movl	8(%rax), %edx
	leaq	-144(%rbp), %rax
	movl	%edx, %esi
	movq	%rax, %rdi
	call	_Z7reg2strB5cxx118Register
.LEHE115:
	leaq	-144(%rbp), %rax
	movq	%rax, %rsi
	movq	%rbx, %rdi
.LEHB116:
	call	_ZStlsIcSt11char_traitsIcESaIcEERSt13basic_ostreamIT_T0_ES7_RKNSt7__cxx1112basic_stringIS4_S5_T1_EE@PLT
	leaq	.LC20(%rip), %rsi
	movq	%rax, %rdi
	call	_ZStlsISt11char_traitsIcEERSt13basic_ostreamIcT_ES5_PKc@PLT
.LEHE116:
	leaq	-144(%rbp), %rax
	movq	%rax, %rdi
	call	_ZNSt7__cxx1112basic_stringIcSt11char_traitsIcESaIcEED1Ev@PLT
	jmp	.L216
.L217:
	leaq	.LC50(%rip), %rsi
	leaq	myfile(%rip), %rdi
.LEHB117:
	call	_ZStlsISt11char_traitsIcEERSt13basic_ostreamIcT_ES5_PKc@PLT
	leaq	.LC32(%rip), %rsi
	movq	%rax, %rdi
	call	_ZStlsISt11char_traitsIcEERSt13basic_ostreamIcT_ES5_PKc@PLT
	movq	%rax, %rdx
	movq	-64(%rbp), %rax
	movl	48(%rax), %eax
	movl	%eax, %esi
	movq	%rdx, %rdi
	call	_ZNSolsEi@PLT
	leaq	.LC19(%rip), %rsi
	movq	%rax, %rdi
	call	_ZStlsISt11char_traitsIcEERSt13basic_ostreamIcT_ES5_PKc@PLT
	leaq	.LC32(%rip), %rsi
	movq	%rax, %rdi
	call	_ZStlsISt11char_traitsIcEERSt13basic_ostreamIcT_ES5_PKc@PLT
	movq	%rax, %rdx
	movq	-72(%rbp), %rax
	movl	48(%rax), %eax
	movl	%eax, %esi
	movq	%rdx, %rdi
	call	_ZNSolsEi@PLT
	leaq	.LC20(%rip), %rsi
	movq	%rax, %rdi
	call	_ZStlsISt11char_traitsIcEERSt13basic_ostreamIcT_ES5_PKc@PLT
.L216:
	leaq	-112(%rbp), %rax
	addq	$8, %rax
	leaq	.LC52(%rip), %rsi
	movq	%rax, %rdi
	call	_ZSteqIcSt11char_traitsIcESaIcEEbRKNSt7__cxx1112basic_stringIT_T0_T1_EEPKS5_
	testb	%al, %al
	je	.L218
	leaq	.LC53(%rip), %rsi
	leaq	myfile(%rip), %rdi
	call	_ZStlsISt11char_traitsIcEERSt13basic_ostreamIcT_ES5_PKc@PLT
	leaq	.LC30(%rip), %rsi
	movq	%rax, %rdi
	call	_ZStlsISt11char_traitsIcEERSt13basic_ostreamIcT_ES5_PKc@PLT
	movq	%rax, %rcx
	movl	-212(%rbp), %eax
	movslq	%eax, %rdx
	movq	%rdx, %rax
	addq	%rax, %rax
	addq	%rdx, %rax
	salq	$3, %rax
	movq	%rax, %rdx
	leaq	16+basicBlocks(%rip), %rax
	movl	(%rdx,%rax), %eax
	movl	%eax, %esi
	movq	%rcx, %rdi
	call	_ZNSolsEi@PLT
	leaq	.LC20(%rip), %rsi
	movq	%rax, %rdi
	call	_ZStlsISt11char_traitsIcEERSt13basic_ostreamIcT_ES5_PKc@PLT
	jmp	.L212
.L218:
	leaq	-112(%rbp), %rax
	addq	$8, %rax
	leaq	.LC54(%rip), %rsi
	movq	%rax, %rdi
	call	_ZSteqIcSt11char_traitsIcESaIcEEbRKNSt7__cxx1112basic_stringIT_T0_T1_EEPKS5_
	testb	%al, %al
	je	.L219
	leaq	.LC55(%rip), %rsi
	leaq	myfile(%rip), %rdi
	call	_ZStlsISt11char_traitsIcEERSt13basic_ostreamIcT_ES5_PKc@PLT
	leaq	.LC30(%rip), %rsi
	movq	%rax, %rdi
	call	_ZStlsISt11char_traitsIcEERSt13basic_ostreamIcT_ES5_PKc@PLT
	movq	%rax, %rcx
	movl	-212(%rbp), %eax
	movslq	%eax, %rdx
	movq	%rdx, %rax
	addq	%rax, %rax
	addq	%rdx, %rax
	salq	$3, %rax
	movq	%rax, %rdx
	leaq	16+basicBlocks(%rip), %rax
	movl	(%rdx,%rax), %eax
	movl	%eax, %esi
	movq	%rcx, %rdi
	call	_ZNSolsEi@PLT
	leaq	.LC20(%rip), %rsi
	movq	%rax, %rdi
	call	_ZStlsISt11char_traitsIcEERSt13basic_ostreamIcT_ES5_PKc@PLT
	jmp	.L212
.L219:
	leaq	-112(%rbp), %rax
	addq	$8, %rax
	leaq	.LC56(%rip), %rsi
	movq	%rax, %rdi
	call	_ZSteqIcSt11char_traitsIcESaIcEEbRKNSt7__cxx1112basic_stringIT_T0_T1_EEPKS5_
	testb	%al, %al
	je	.L220
	leaq	.LC57(%rip), %rsi
	leaq	myfile(%rip), %rdi
	call	_ZStlsISt11char_traitsIcEERSt13basic_ostreamIcT_ES5_PKc@PLT
	leaq	.LC30(%rip), %rsi
	movq	%rax, %rdi
	call	_ZStlsISt11char_traitsIcEERSt13basic_ostreamIcT_ES5_PKc@PLT
	movq	%rax, %rcx
	movl	-212(%rbp), %eax
	movslq	%eax, %rdx
	movq	%rdx, %rax
	addq	%rax, %rax
	addq	%rdx, %rax
	salq	$3, %rax
	movq	%rax, %rdx
	leaq	16+basicBlocks(%rip), %rax
	movl	(%rdx,%rax), %eax
	movl	%eax, %esi
	movq	%rcx, %rdi
	call	_ZNSolsEi@PLT
	leaq	.LC20(%rip), %rsi
	movq	%rax, %rdi
	call	_ZStlsISt11char_traitsIcEERSt13basic_ostreamIcT_ES5_PKc@PLT
	jmp	.L212
.L220:
	leaq	-112(%rbp), %rax
	addq	$8, %rax
	leaq	.LC58(%rip), %rsi
	movq	%rax, %rdi
	call	_ZSteqIcSt11char_traitsIcESaIcEEbRKNSt7__cxx1112basic_stringIT_T0_T1_EEPKS5_
	testb	%al, %al
	je	.L221
	leaq	.LC51(%rip), %rsi
	leaq	myfile(%rip), %rdi
	call	_ZStlsISt11char_traitsIcEERSt13basic_ostreamIcT_ES5_PKc@PLT
	leaq	.LC30(%rip), %rsi
	movq	%rax, %rdi
	call	_ZStlsISt11char_traitsIcEERSt13basic_ostreamIcT_ES5_PKc@PLT
	movq	%rax, %rcx
	movl	-212(%rbp), %eax
	movslq	%eax, %rdx
	movq	%rdx, %rax
	addq	%rax, %rax
	addq	%rdx, %rax
	salq	$3, %rax
	movq	%rax, %rdx
	leaq	16+basicBlocks(%rip), %rax
	movl	(%rdx,%rax), %eax
	movl	%eax, %esi
	movq	%rcx, %rdi
	call	_ZNSolsEi@PLT
	leaq	.LC20(%rip), %rsi
	movq	%rax, %rdi
	call	_ZStlsISt11char_traitsIcEERSt13basic_ostreamIcT_ES5_PKc@PLT
	jmp	.L212
.L221:
	leaq	-112(%rbp), %rax
	addq	$8, %rax
	leaq	.LC59(%rip), %rsi
	movq	%rax, %rdi
	call	_ZSteqIcSt11char_traitsIcESaIcEEbRKNSt7__cxx1112basic_stringIT_T0_T1_EEPKS5_
	testb	%al, %al
	je	.L212
	leaq	.LC60(%rip), %rsi
	leaq	myfile(%rip), %rdi
	call	_ZStlsISt11char_traitsIcEERSt13basic_ostreamIcT_ES5_PKc@PLT
	leaq	.LC30(%rip), %rsi
	movq	%rax, %rdi
	call	_ZStlsISt11char_traitsIcEERSt13basic_ostreamIcT_ES5_PKc@PLT
	movq	%rax, %rcx
	movl	-212(%rbp), %eax
	movslq	%eax, %rdx
	movq	%rdx, %rax
	addq	%rax, %rax
	addq	%rdx, %rax
	salq	$3, %rax
	movq	%rax, %rdx
	leaq	16+basicBlocks(%rip), %rax
	movl	(%rdx,%rax), %eax
	movl	%eax, %esi
	movq	%rcx, %rdi
	call	_ZNSolsEi@PLT
	leaq	.LC20(%rip), %rsi
	movq	%rax, %rdi
	call	_ZStlsISt11char_traitsIcEERSt13basic_ostreamIcT_ES5_PKc@PLT
.L212:
	leaq	.LC20(%rip), %rsi
	leaq	myfile(%rip), %rdi
	call	_ZStlsISt11char_traitsIcEERSt13basic_ostreamIcT_ES5_PKc@PLT
	jmp	.L167
.L205:
	movl	-108(%rbp), %eax
	cmpl	$4, %eax
	jne	.L222
	leaq	.LC61(%rip), %rsi
	leaq	myfile(%rip), %rdi
	call	_ZStlsISt11char_traitsIcEERSt13basic_ostreamIcT_ES5_PKc@PLT
	leaq	.LC30(%rip), %rsi
	movq	%rax, %rdi
	call	_ZStlsISt11char_traitsIcEERSt13basic_ostreamIcT_ES5_PKc@PLT
	movq	%rax, %rcx
	movl	-212(%rbp), %eax
	movslq	%eax, %rdx
	movq	%rdx, %rax
	addq	%rax, %rax
	addq	%rdx, %rax
	salq	$3, %rax
	movq	%rax, %rdx
	leaq	16+basicBlocks(%rip), %rax
	movl	(%rdx,%rax), %eax
	movl	%eax, %esi
	movq	%rcx, %rdi
	call	_ZNSolsEi@PLT
	leaq	.LC20(%rip), %rsi
	movq	%rax, %rdi
	call	_ZStlsISt11char_traitsIcEERSt13basic_ostreamIcT_ES5_PKc@PLT
	leaq	.LC20(%rip), %rsi
	leaq	myfile(%rip), %rdi
	call	_ZStlsISt11char_traitsIcEERSt13basic_ostreamIcT_ES5_PKc@PLT
	jmp	.L167
.L222:
	movl	-108(%rbp), %eax
	cmpl	$5, %eax
	jne	.L223
	leaq	.LC62(%rip), %rsi
	leaq	myfile(%rip), %rdi
	call	_ZStlsISt11char_traitsIcEERSt13basic_ostreamIcT_ES5_PKc@PLT
	leaq	.LC30(%rip), %rsi
	movq	%rax, %rdi
	call	_ZStlsISt11char_traitsIcEERSt13basic_ostreamIcT_ES5_PKc@PLT
	movq	%rax, %rcx
	movl	-212(%rbp), %eax
	movslq	%eax, %rdx
	movq	%rdx, %rax
	addq	%rax, %rax
	addq	%rdx, %rax
	salq	$3, %rax
	movq	%rax, %rdx
	leaq	16+basicBlocks(%rip), %rax
	movl	(%rdx,%rax), %eax
	movl	%eax, %esi
	movq	%rcx, %rdi
	call	_ZNSolsEi@PLT
	leaq	.LC20(%rip), %rsi
	movq	%rax, %rdi
	call	_ZStlsISt11char_traitsIcEERSt13basic_ostreamIcT_ES5_PKc@PLT
	leaq	.LC20(%rip), %rsi
	leaq	myfile(%rip), %rdi
	call	_ZStlsISt11char_traitsIcEERSt13basic_ostreamIcT_ES5_PKc@PLT
	jmp	.L167
.L223:
	movl	-108(%rbp), %eax
	cmpl	$6, %eax
	je	.L167
	movl	-108(%rbp), %eax
	cmpl	$7, %eax
	jne	.L224
	leaq	-112(%rbp), %rax
	movq	%rax, %rdi
	call	_Z16allocateRegisterP14Instruction3AC
	leaq	.LC63(%rip), %rsi
	leaq	myfile(%rip), %rdi
	call	_ZStlsISt11char_traitsIcEERSt13basic_ostreamIcT_ES5_PKc@PLT
	leaq	.LC64(%rip), %rsi
	leaq	myfile(%rip), %rdi
	call	_ZStlsISt11char_traitsIcEERSt13basic_ostreamIcT_ES5_PKc@PLT
	leaq	.LC65(%rip), %rsi
	leaq	myfile(%rip), %rdi
	call	_ZStlsISt11char_traitsIcEERSt13basic_ostreamIcT_ES5_PKc@PLT
	leaq	.LC66(%rip), %rsi
	leaq	myfile(%rip), %rdi
	call	_ZStlsISt11char_traitsIcEERSt13basic_ostreamIcT_ES5_PKc@PLT
	leaq	.LC67(%rip), %rsi
	leaq	myfile(%rip), %rdi
	call	_ZStlsISt11char_traitsIcEERSt13basic_ostreamIcT_ES5_PKc@PLT
	movq	%rax, %rdx
	movq	-56(%rbp), %rax
	addq	$16, %rax
	movq	%rax, %rsi
	movq	%rdx, %rdi
	call	_ZStlsIcSt11char_traitsIcESaIcEERSt13basic_ostreamIT_T0_ES7_RKNSt7__cxx1112basic_stringIS4_S5_T1_EE@PLT
	leaq	.LC68(%rip), %rsi
	movq	%rax, %rdi
	call	_ZStlsISt11char_traitsIcEERSt13basic_ostreamIcT_ES5_PKc@PLT
	leaq	.LC69(%rip), %rsi
	leaq	myfile(%rip), %rdi
	call	_ZStlsISt11char_traitsIcEERSt13basic_ostreamIcT_ES5_PKc@PLT
	leaq	.LC70(%rip), %rsi
	leaq	myfile(%rip), %rdi
	call	_ZStlsISt11char_traitsIcEERSt13basic_ostreamIcT_ES5_PKc@PLT
	leaq	.LC71(%rip), %rsi
	leaq	myfile(%rip), %rdi
	call	_ZStlsISt11char_traitsIcEERSt13basic_ostreamIcT_ES5_PKc@PLT
	leaq	.LC72(%rip), %rsi
	leaq	myfile(%rip), %rdi
	call	_ZStlsISt11char_traitsIcEERSt13basic_ostreamIcT_ES5_PKc@PLT
	leaq	.LC20(%rip), %rsi
	leaq	myfile(%rip), %rdi
	call	_ZStlsISt11char_traitsIcEERSt13basic_ostreamIcT_ES5_PKc@PLT
	jmp	.L167
.L224:
	movl	-108(%rbp), %eax
	cmpl	$8, %eax
	jne	.L225
	leaq	.LC64(%rip), %rsi
	leaq	myfile(%rip), %rdi
	call	_ZStlsISt11char_traitsIcEERSt13basic_ostreamIcT_ES5_PKc@PLT
	leaq	.LC65(%rip), %rsi
	leaq	myfile(%rip), %rdi
	call	_ZStlsISt11char_traitsIcEERSt13basic_ostreamIcT_ES5_PKc@PLT
	leaq	.LC73(%rip), %rsi
	leaq	myfile(%rip), %rdi
	call	_ZStlsISt11char_traitsIcEERSt13basic_ostreamIcT_ES5_PKc@PLT
	leaq	.LC74(%rip), %rsi
	leaq	myfile(%rip), %rdi
	call	_ZStlsISt11char_traitsIcEERSt13basic_ostreamIcT_ES5_PKc@PLT
	movq	-72(%rbp), %rax
	movl	(%rax), %eax
	cmpl	$2, %eax
	jne	.L226
	leaq	.LC18(%rip), %rsi
	leaq	myfile(%rip), %rdi
	call	_ZStlsISt11char_traitsIcEERSt13basic_ostreamIcT_ES5_PKc@PLT
	leaq	.LC32(%rip), %rsi
	movq	%rax, %rdi
	call	_ZStlsISt11char_traitsIcEERSt13basic_ostreamIcT_ES5_PKc@PLT
	movq	%rax, %rdx
	movq	-72(%rbp), %rax
	movl	48(%rax), %eax
	movl	%eax, %esi
	movq	%rdx, %rdi
	call	_ZNSolsEi@PLT
	leaq	.LC68(%rip), %rsi
	movq	%rax, %rdi
	call	_ZStlsISt11char_traitsIcEERSt13basic_ostreamIcT_ES5_PKc@PLT
	jmp	.L227
.L226:
	leaq	.LC18(%rip), %rsi
	leaq	myfile(%rip), %rdi
	call	_ZStlsISt11char_traitsIcEERSt13basic_ostreamIcT_ES5_PKc@PLT
	movq	%rax, %rdx
	movq	-72(%rbp), %rax
	addq	$16, %rax
	movq	%rax, %rsi
	movq	%rdx, %rdi
	call	_ZStlsIcSt11char_traitsIcESaIcEERSt13basic_ostreamIT_T0_ES7_RKNSt7__cxx1112basic_stringIS4_S5_T1_EE@PLT
	leaq	.LC68(%rip), %rsi
	movq	%rax, %rdi
	call	_ZStlsISt11char_traitsIcEERSt13basic_ostreamIcT_ES5_PKc@PLT
.L227:
	leaq	.LC75(%rip), %rsi
	leaq	myfile(%rip), %rdi
	call	_ZStlsISt11char_traitsIcEERSt13basic_ostreamIcT_ES5_PKc@PLT
	leaq	.LC76(%rip), %rsi
	leaq	myfile(%rip), %rdi
	call	_ZStlsISt11char_traitsIcEERSt13basic_ostreamIcT_ES5_PKc@PLT
	leaq	.LC77(%rip), %rsi
	leaq	myfile(%rip), %rdi
	call	_ZStlsISt11char_traitsIcEERSt13basic_ostreamIcT_ES5_PKc@PLT
	leaq	.LC78(%rip), %rsi
	leaq	myfile(%rip), %rdi
	call	_ZStlsISt11char_traitsIcEERSt13basic_ostreamIcT_ES5_PKc@PLT
	leaq	.LC79(%rip), %rsi
	leaq	myfile(%rip), %rdi
	call	_ZStlsISt11char_traitsIcEERSt13basic_ostreamIcT_ES5_PKc@PLT
	leaq	.LC80(%rip), %rsi
	leaq	myfile(%rip), %rdi
	call	_ZStlsISt11char_traitsIcEERSt13basic_ostreamIcT_ES5_PKc@PLT
	leaq	.LC81(%rip), %rsi
	leaq	myfile(%rip), %rdi
	call	_ZStlsISt11char_traitsIcEERSt13basic_ostreamIcT_ES5_PKc@PLT
	leaq	.LC70(%rip), %rsi
	leaq	myfile(%rip), %rdi
	call	_ZStlsISt11char_traitsIcEERSt13basic_ostreamIcT_ES5_PKc@PLT
	leaq	.LC71(%rip), %rsi
	leaq	myfile(%rip), %rdi
	call	_ZStlsISt11char_traitsIcEERSt13basic_ostreamIcT_ES5_PKc@PLT
	leaq	.LC20(%rip), %rsi
	leaq	myfile(%rip), %rdi
	call	_ZStlsISt11char_traitsIcEERSt13basic_ostreamIcT_ES5_PKc@PLT
	jmp	.L167
.L225:
	movl	-108(%rbp), %eax
	cmpl	$9, %eax
	jne	.L167
	leaq	.LC82(%rip), %rsi
	leaq	myfile(%rip), %rdi
	call	_ZStlsISt11char_traitsIcEERSt13basic_ostreamIcT_ES5_PKc@PLT
.LEHE117:
.L167:
	leaq	-112(%rbp), %rax
	movq	%rax, %rdi
	call	_ZN14Instruction3ACD1Ev
	addl	$1, -208(%rbp)
	jmp	.L228
.L163:
	addl	$1, -212(%rbp)
	jmp	.L229
.L162:
	leaq	.LC82(%rip), %rsi
	leaq	myfile(%rip), %rdi
.LEHB118:
	call	_ZStlsISt11char_traitsIcEERSt13basic_ostreamIcT_ES5_PKc@PLT
	leaq	myfile(%rip), %rdi
	call	_ZNSt14basic_ofstreamIcSt11char_traitsIcEE5closeEv@PLT
.LEHE118:
	leaq	-176(%rbp), %rax
	movq	%rax, %rdi
	call	_ZNSt6vectorINSt7__cxx1112basic_stringIcSt11char_traitsIcESaIcEEESaIS5_EED1Ev
	nop
	movq	-24(%rbp), %rax
	xorq	%fs:40, %rax
	je	.L278
	jmp	.L327
.L281:
	movq	%rax, %rbx
	leaq	-144(%rbp), %rax
	movq	%rax, %rdi
	call	_ZNSt7__cxx1112basic_stringIcSt11char_traitsIcESaIcEED1Ev@PLT
	jmp	.L231
.L282:
	movq	%rax, %rbx
	leaq	-144(%rbp), %rax
	movq	%rax, %rdi
	call	_ZNSt7__cxx1112basic_stringIcSt11char_traitsIcESaIcEED1Ev@PLT
	jmp	.L231
.L283:
	movq	%rax, %rbx
	leaq	-144(%rbp), %rax
	movq	%rax, %rdi
	call	_ZNSt7__cxx1112basic_stringIcSt11char_traitsIcESaIcEED1Ev@PLT
	jmp	.L231
.L284:
	movq	%rax, %rbx
	leaq	-144(%rbp), %rax
	movq	%rax, %rdi
	call	_ZNSt7__cxx1112basic_stringIcSt11char_traitsIcESaIcEED1Ev@PLT
	jmp	.L231
.L285:
	movq	%rax, %rbx
	leaq	-144(%rbp), %rax
	movq	%rax, %rdi
	call	_ZNSt7__cxx1112basic_stringIcSt11char_traitsIcESaIcEED1Ev@PLT
	jmp	.L231
.L286:
	movq	%rax, %rbx
	leaq	-144(%rbp), %rax
	movq	%rax, %rdi
	call	_ZNSt7__cxx1112basic_stringIcSt11char_traitsIcESaIcEED1Ev@PLT
	jmp	.L231
.L287:
	movq	%rax, %rbx
	leaq	-144(%rbp), %rax
	movq	%rax, %rdi
	call	_ZNSt7__cxx1112basic_stringIcSt11char_traitsIcESaIcEED1Ev@PLT
	jmp	.L231
.L288:
	movq	%rax, %rbx
	leaq	-144(%rbp), %rax
	movq	%rax, %rdi
	call	_ZNSt7__cxx1112basic_stringIcSt11char_traitsIcESaIcEED1Ev@PLT
	jmp	.L231
.L289:
	movq	%rax, %rbx
	leaq	-144(%rbp), %rax
	movq	%rax, %rdi
	call	_ZNSt7__cxx1112basic_stringIcSt11char_traitsIcESaIcEED1Ev@PLT
	jmp	.L231
.L290:
	movq	%rax, %rbx
	leaq	-144(%rbp), %rax
	movq	%rax, %rdi
	call	_ZNSt7__cxx1112basic_stringIcSt11char_traitsIcESaIcEED1Ev@PLT
	jmp	.L231
.L291:
	movq	%rax, %rbx
	leaq	-144(%rbp), %rax
	movq	%rax, %rdi
	call	_ZNSt7__cxx1112basic_stringIcSt11char_traitsIcESaIcEED1Ev@PLT
	jmp	.L231
.L292:
	movq	%rax, %rbx
	leaq	-144(%rbp), %rax
	movq	%rax, %rdi
	call	_ZNSt7__cxx1112basic_stringIcSt11char_traitsIcESaIcEED1Ev@PLT
	jmp	.L231
.L293:
	movq	%rax, %rbx
	leaq	-144(%rbp), %rax
	movq	%rax, %rdi
	call	_ZNSt7__cxx1112basic_stringIcSt11char_traitsIcESaIcEED1Ev@PLT
	jmp	.L231
.L294:
	movq	%rax, %rbx
	leaq	-144(%rbp), %rax
	movq	%rax, %rdi
	call	_ZNSt7__cxx1112basic_stringIcSt11char_traitsIcESaIcEED1Ev@PLT
	jmp	.L231
.L295:
	movq	%rax, %rbx
	leaq	-144(%rbp), %rax
	movq	%rax, %rdi
	call	_ZNSt7__cxx1112basic_stringIcSt11char_traitsIcESaIcEED1Ev@PLT
	jmp	.L231
.L296:
	movq	%rax, %rbx
	leaq	-144(%rbp), %rax
	movq	%rax, %rdi
	call	_ZNSt7__cxx1112basic_stringIcSt11char_traitsIcESaIcEED1Ev@PLT
	jmp	.L231
.L297:
	movq	%rax, %rbx
	leaq	-144(%rbp), %rax
	movq	%rax, %rdi
	call	_ZNSt7__cxx1112basic_stringIcSt11char_traitsIcESaIcEED1Ev@PLT
	jmp	.L231
.L298:
	movq	%rax, %rbx
	leaq	-144(%rbp), %rax
	movq	%rax, %rdi
	call	_ZNSt7__cxx1112basic_stringIcSt11char_traitsIcESaIcEED1Ev@PLT
	jmp	.L231
.L299:
	movq	%rax, %rbx
	leaq	-144(%rbp), %rax
	movq	%rax, %rdi
	call	_ZNSt7__cxx1112basic_stringIcSt11char_traitsIcESaIcEED1Ev@PLT
	jmp	.L231
.L300:
	movq	%rax, %rbx
	leaq	-144(%rbp), %rax
	movq	%rax, %rdi
	call	_ZNSt7__cxx1112basic_stringIcSt11char_traitsIcESaIcEED1Ev@PLT
	jmp	.L231
.L301:
	movq	%rax, %rbx
	leaq	-144(%rbp), %rax
	movq	%rax, %rdi
	call	_ZNSt7__cxx1112basic_stringIcSt11char_traitsIcESaIcEED1Ev@PLT
	jmp	.L231
.L302:
	movq	%rax, %rbx
	leaq	-144(%rbp), %rax
	movq	%rax, %rdi
	call	_ZNSt7__cxx1112basic_stringIcSt11char_traitsIcESaIcEED1Ev@PLT
	jmp	.L231
.L303:
	movq	%rax, %rbx
	leaq	-144(%rbp), %rax
	movq	%rax, %rdi
	call	_ZNSt7__cxx1112basic_stringIcSt11char_traitsIcESaIcEED1Ev@PLT
	jmp	.L231
.L304:
	movq	%rax, %rbx
	leaq	-144(%rbp), %rax
	movq	%rax, %rdi
	call	_ZNSt7__cxx1112basic_stringIcSt11char_traitsIcESaIcEED1Ev@PLT
	jmp	.L231
.L305:
	movq	%rax, %rbx
	leaq	-144(%rbp), %rax
	movq	%rax, %rdi
	call	_ZNSt7__cxx1112basic_stringIcSt11char_traitsIcESaIcEED1Ev@PLT
	jmp	.L231
.L306:
	movq	%rax, %rbx
	leaq	-144(%rbp), %rax
	movq	%rax, %rdi
	call	_ZNSt7__cxx1112basic_stringIcSt11char_traitsIcESaIcEED1Ev@PLT
	jmp	.L231
.L307:
	movq	%rax, %rbx
	leaq	-144(%rbp), %rax
	movq	%rax, %rdi
	call	_ZNSt7__cxx1112basic_stringIcSt11char_traitsIcESaIcEED1Ev@PLT
	jmp	.L231
.L308:
	movq	%rax, %rbx
	leaq	-144(%rbp), %rax
	movq	%rax, %rdi
	call	_ZNSt7__cxx1112basic_stringIcSt11char_traitsIcESaIcEED1Ev@PLT
	jmp	.L231
.L309:
	movq	%rax, %rbx
	leaq	-144(%rbp), %rax
	movq	%rax, %rdi
	call	_ZNSt7__cxx1112basic_stringIcSt11char_traitsIcESaIcEED1Ev@PLT
	jmp	.L231
.L310:
	movq	%rax, %rbx
	leaq	-144(%rbp), %rax
	movq	%rax, %rdi
	call	_ZNSt7__cxx1112basic_stringIcSt11char_traitsIcESaIcEED1Ev@PLT
	jmp	.L231
.L311:
	movq	%rax, %rbx
	leaq	-144(%rbp), %rax
	movq	%rax, %rdi
	call	_ZNSt7__cxx1112basic_stringIcSt11char_traitsIcESaIcEED1Ev@PLT
	jmp	.L231
.L312:
	movq	%rax, %rbx
	leaq	-144(%rbp), %rax
	movq	%rax, %rdi
	call	_ZNSt7__cxx1112basic_stringIcSt11char_traitsIcESaIcEED1Ev@PLT
	jmp	.L231
.L313:
	movq	%rax, %rbx
	leaq	-144(%rbp), %rax
	movq	%rax, %rdi
	call	_ZNSt7__cxx1112basic_stringIcSt11char_traitsIcESaIcEED1Ev@PLT
	jmp	.L231
.L314:
	movq	%rax, %rbx
	leaq	-144(%rbp), %rax
	movq	%rax, %rdi
	call	_ZNSt7__cxx1112basic_stringIcSt11char_traitsIcESaIcEED1Ev@PLT
	jmp	.L231
.L315:
	movq	%rax, %rbx
	leaq	-144(%rbp), %rax
	movq	%rax, %rdi
	call	_ZNSt7__cxx1112basic_stringIcSt11char_traitsIcESaIcEED1Ev@PLT
	jmp	.L231
.L316:
	movq	%rax, %rbx
	leaq	-144(%rbp), %rax
	movq	%rax, %rdi
	call	_ZNSt7__cxx1112basic_stringIcSt11char_traitsIcESaIcEED1Ev@PLT
	jmp	.L231
.L317:
	movq	%rax, %rbx
	leaq	-144(%rbp), %rax
	movq	%rax, %rdi
	call	_ZNSt7__cxx1112basic_stringIcSt11char_traitsIcESaIcEED1Ev@PLT
	jmp	.L231
.L318:
	movq	%rax, %rbx
	leaq	-144(%rbp), %rax
	movq	%rax, %rdi
	call	_ZNSt7__cxx1112basic_stringIcSt11char_traitsIcESaIcEED1Ev@PLT
	jmp	.L231
.L319:
	movq	%rax, %rbx
	leaq	-144(%rbp), %rax
	movq	%rax, %rdi
	call	_ZNSt7__cxx1112basic_stringIcSt11char_traitsIcESaIcEED1Ev@PLT
	jmp	.L231
.L320:
	movq	%rax, %rbx
	leaq	-144(%rbp), %rax
	movq	%rax, %rdi
	call	_ZNSt7__cxx1112basic_stringIcSt11char_traitsIcESaIcEED1Ev@PLT
	jmp	.L231
.L321:
	movq	%rax, %rbx
	leaq	-144(%rbp), %rax
	movq	%rax, %rdi
	call	_ZNSt7__cxx1112basic_stringIcSt11char_traitsIcESaIcEED1Ev@PLT
	jmp	.L231
.L322:
	movq	%rax, %rbx
	leaq	-144(%rbp), %rax
	movq	%rax, %rdi
	call	_ZNSt7__cxx1112basic_stringIcSt11char_traitsIcESaIcEED1Ev@PLT
	jmp	.L231
.L323:
	movq	%rax, %rbx
	leaq	-144(%rbp), %rax
	movq	%rax, %rdi
	call	_ZNSt7__cxx1112basic_stringIcSt11char_traitsIcESaIcEED1Ev@PLT
	jmp	.L231
.L324:
	movq	%rax, %rbx
	leaq	-144(%rbp), %rax
	movq	%rax, %rdi
	call	_ZNSt7__cxx1112basic_stringIcSt11char_traitsIcESaIcEED1Ev@PLT
	jmp	.L231
.L325:
	movq	%rax, %rbx
	leaq	-144(%rbp), %rax
	movq	%rax, %rdi
	call	_ZNSt7__cxx1112basic_stringIcSt11char_traitsIcESaIcEED1Ev@PLT
	jmp	.L231
.L326:
	movq	%rax, %rbx
	leaq	-144(%rbp), %rax
	movq	%rax, %rdi
	call	_ZNSt7__cxx1112basic_stringIcSt11char_traitsIcESaIcEED1Ev@PLT
	jmp	.L231
.L280:
	movq	%rax, %rbx
.L231:
	leaq	-112(%rbp), %rax
	movq	%rax, %rdi
	call	_ZN14Instruction3ACD1Ev
	jmp	.L277
.L279:
	movq	%rax, %rbx
.L277:
	leaq	-176(%rbp), %rax
	movq	%rax, %rdi
	call	_ZNSt6vectorINSt7__cxx1112basic_stringIcSt11char_traitsIcESaIcEEESaIS5_EED1Ev
	movq	%rbx, %rax
	movq	%rax, %rdi
.LEHB119:
	call	_Unwind_Resume@PLT
.LEHE119:
.L327:
	call	__stack_chk_fail@PLT
.L278:
	addq	$216, %rsp
	popq	%rbx
	popq	%rbp
	.cfi_def_cfa 7, 8
	ret
	.cfi_endproc
.LFE8248:
	.section	.gcc_except_table
.LLSDA8248:
	.byte	0xff
	.byte	0xff
	.byte	0x1
	.uleb128 .LLSDACSE8248-.LLSDACSB8248
.LLSDACSB8248:
	.uleb128 .LEHB23-.LFB8248
	.uleb128 .LEHE23-.LEHB23
	.uleb128 0
	.uleb128 0
	.uleb128 .LEHB24-.LFB8248
	.uleb128 .LEHE24-.LEHB24
	.uleb128 .L279-.LFB8248
	.uleb128 0
	.uleb128 .LEHB25-.LFB8248
	.uleb128 .LEHE25-.LEHB25
	.uleb128 .L280-.LFB8248
	.uleb128 0
	.uleb128 .LEHB26-.LFB8248
	.uleb128 .LEHE26-.LEHB26
	.uleb128 .L281-.LFB8248
	.uleb128 0
	.uleb128 .LEHB27-.LFB8248
	.uleb128 .LEHE27-.LEHB27
	.uleb128 .L280-.LFB8248
	.uleb128 0
	.uleb128 .LEHB28-.LFB8248
	.uleb128 .LEHE28-.LEHB28
	.uleb128 .L282-.LFB8248
	.uleb128 0
	.uleb128 .LEHB29-.LFB8248
	.uleb128 .LEHE29-.LEHB29
	.uleb128 .L280-.LFB8248
	.uleb128 0
	.uleb128 .LEHB30-.LFB8248
	.uleb128 .LEHE30-.LEHB30
	.uleb128 .L283-.LFB8248
	.uleb128 0
	.uleb128 .LEHB31-.LFB8248
	.uleb128 .LEHE31-.LEHB31
	.uleb128 .L280-.LFB8248
	.uleb128 0
	.uleb128 .LEHB32-.LFB8248
	.uleb128 .LEHE32-.LEHB32
	.uleb128 .L284-.LFB8248
	.uleb128 0
	.uleb128 .LEHB33-.LFB8248
	.uleb128 .LEHE33-.LEHB33
	.uleb128 .L280-.LFB8248
	.uleb128 0
	.uleb128 .LEHB34-.LFB8248
	.uleb128 .LEHE34-.LEHB34
	.uleb128 .L285-.LFB8248
	.uleb128 0
	.uleb128 .LEHB35-.LFB8248
	.uleb128 .LEHE35-.LEHB35
	.uleb128 .L280-.LFB8248
	.uleb128 0
	.uleb128 .LEHB36-.LFB8248
	.uleb128 .LEHE36-.LEHB36
	.uleb128 .L286-.LFB8248
	.uleb128 0
	.uleb128 .LEHB37-.LFB8248
	.uleb128 .LEHE37-.LEHB37
	.uleb128 .L280-.LFB8248
	.uleb128 0
	.uleb128 .LEHB38-.LFB8248
	.uleb128 .LEHE38-.LEHB38
	.uleb128 .L287-.LFB8248
	.uleb128 0
	.uleb128 .LEHB39-.LFB8248
	.uleb128 .LEHE39-.LEHB39
	.uleb128 .L280-.LFB8248
	.uleb128 0
	.uleb128 .LEHB40-.LFB8248
	.uleb128 .LEHE40-.LEHB40
	.uleb128 .L288-.LFB8248
	.uleb128 0
	.uleb128 .LEHB41-.LFB8248
	.uleb128 .LEHE41-.LEHB41
	.uleb128 .L280-.LFB8248
	.uleb128 0
	.uleb128 .LEHB42-.LFB8248
	.uleb128 .LEHE42-.LEHB42
	.uleb128 .L289-.LFB8248
	.uleb128 0
	.uleb128 .LEHB43-.LFB8248
	.uleb128 .LEHE43-.LEHB43
	.uleb128 .L280-.LFB8248
	.uleb128 0
	.uleb128 .LEHB44-.LFB8248
	.uleb128 .LEHE44-.LEHB44
	.uleb128 .L290-.LFB8248
	.uleb128 0
	.uleb128 .LEHB45-.LFB8248
	.uleb128 .LEHE45-.LEHB45
	.uleb128 .L280-.LFB8248
	.uleb128 0
	.uleb128 .LEHB46-.LFB8248
	.uleb128 .LEHE46-.LEHB46
	.uleb128 .L291-.LFB8248
	.uleb128 0
	.uleb128 .LEHB47-.LFB8248
	.uleb128 .LEHE47-.LEHB47
	.uleb128 .L280-.LFB8248
	.uleb128 0
	.uleb128 .LEHB48-.LFB8248
	.uleb128 .LEHE48-.LEHB48
	.uleb128 .L292-.LFB8248
	.uleb128 0
	.uleb128 .LEHB49-.LFB8248
	.uleb128 .LEHE49-.LEHB49
	.uleb128 .L280-.LFB8248
	.uleb128 0
	.uleb128 .LEHB50-.LFB8248
	.uleb128 .LEHE50-.LEHB50
	.uleb128 .L293-.LFB8248
	.uleb128 0
	.uleb128 .LEHB51-.LFB8248
	.uleb128 .LEHE51-.LEHB51
	.uleb128 .L280-.LFB8248
	.uleb128 0
	.uleb128 .LEHB52-.LFB8248
	.uleb128 .LEHE52-.LEHB52
	.uleb128 .L294-.LFB8248
	.uleb128 0
	.uleb128 .LEHB53-.LFB8248
	.uleb128 .LEHE53-.LEHB53
	.uleb128 .L280-.LFB8248
	.uleb128 0
	.uleb128 .LEHB54-.LFB8248
	.uleb128 .LEHE54-.LEHB54
	.uleb128 .L295-.LFB8248
	.uleb128 0
	.uleb128 .LEHB55-.LFB8248
	.uleb128 .LEHE55-.LEHB55
	.uleb128 .L280-.LFB8248
	.uleb128 0
	.uleb128 .LEHB56-.LFB8248
	.uleb128 .LEHE56-.LEHB56
	.uleb128 .L296-.LFB8248
	.uleb128 0
	.uleb128 .LEHB57-.LFB8248
	.uleb128 .LEHE57-.LEHB57
	.uleb128 .L280-.LFB8248
	.uleb128 0
	.uleb128 .LEHB58-.LFB8248
	.uleb128 .LEHE58-.LEHB58
	.uleb128 .L297-.LFB8248
	.uleb128 0
	.uleb128 .LEHB59-.LFB8248
	.uleb128 .LEHE59-.LEHB59
	.uleb128 .L280-.LFB8248
	.uleb128 0
	.uleb128 .LEHB60-.LFB8248
	.uleb128 .LEHE60-.LEHB60
	.uleb128 .L298-.LFB8248
	.uleb128 0
	.uleb128 .LEHB61-.LFB8248
	.uleb128 .LEHE61-.LEHB61
	.uleb128 .L280-.LFB8248
	.uleb128 0
	.uleb128 .LEHB62-.LFB8248
	.uleb128 .LEHE62-.LEHB62
	.uleb128 .L299-.LFB8248
	.uleb128 0
	.uleb128 .LEHB63-.LFB8248
	.uleb128 .LEHE63-.LEHB63
	.uleb128 .L280-.LFB8248
	.uleb128 0
	.uleb128 .LEHB64-.LFB8248
	.uleb128 .LEHE64-.LEHB64
	.uleb128 .L300-.LFB8248
	.uleb128 0
	.uleb128 .LEHB65-.LFB8248
	.uleb128 .LEHE65-.LEHB65
	.uleb128 .L280-.LFB8248
	.uleb128 0
	.uleb128 .LEHB66-.LFB8248
	.uleb128 .LEHE66-.LEHB66
	.uleb128 .L301-.LFB8248
	.uleb128 0
	.uleb128 .LEHB67-.LFB8248
	.uleb128 .LEHE67-.LEHB67
	.uleb128 .L280-.LFB8248
	.uleb128 0
	.uleb128 .LEHB68-.LFB8248
	.uleb128 .LEHE68-.LEHB68
	.uleb128 .L302-.LFB8248
	.uleb128 0
	.uleb128 .LEHB69-.LFB8248
	.uleb128 .LEHE69-.LEHB69
	.uleb128 .L280-.LFB8248
	.uleb128 0
	.uleb128 .LEHB70-.LFB8248
	.uleb128 .LEHE70-.LEHB70
	.uleb128 .L303-.LFB8248
	.uleb128 0
	.uleb128 .LEHB71-.LFB8248
	.uleb128 .LEHE71-.LEHB71
	.uleb128 .L280-.LFB8248
	.uleb128 0
	.uleb128 .LEHB72-.LFB8248
	.uleb128 .LEHE72-.LEHB72
	.uleb128 .L304-.LFB8248
	.uleb128 0
	.uleb128 .LEHB73-.LFB8248
	.uleb128 .LEHE73-.LEHB73
	.uleb128 .L280-.LFB8248
	.uleb128 0
	.uleb128 .LEHB74-.LFB8248
	.uleb128 .LEHE74-.LEHB74
	.uleb128 .L305-.LFB8248
	.uleb128 0
	.uleb128 .LEHB75-.LFB8248
	.uleb128 .LEHE75-.LEHB75
	.uleb128 .L280-.LFB8248
	.uleb128 0
	.uleb128 .LEHB76-.LFB8248
	.uleb128 .LEHE76-.LEHB76
	.uleb128 .L306-.LFB8248
	.uleb128 0
	.uleb128 .LEHB77-.LFB8248
	.uleb128 .LEHE77-.LEHB77
	.uleb128 .L280-.LFB8248
	.uleb128 0
	.uleb128 .LEHB78-.LFB8248
	.uleb128 .LEHE78-.LEHB78
	.uleb128 .L307-.LFB8248
	.uleb128 0
	.uleb128 .LEHB79-.LFB8248
	.uleb128 .LEHE79-.LEHB79
	.uleb128 .L280-.LFB8248
	.uleb128 0
	.uleb128 .LEHB80-.LFB8248
	.uleb128 .LEHE80-.LEHB80
	.uleb128 .L308-.LFB8248
	.uleb128 0
	.uleb128 .LEHB81-.LFB8248
	.uleb128 .LEHE81-.LEHB81
	.uleb128 .L280-.LFB8248
	.uleb128 0
	.uleb128 .LEHB82-.LFB8248
	.uleb128 .LEHE82-.LEHB82
	.uleb128 .L309-.LFB8248
	.uleb128 0
	.uleb128 .LEHB83-.LFB8248
	.uleb128 .LEHE83-.LEHB83
	.uleb128 .L280-.LFB8248
	.uleb128 0
	.uleb128 .LEHB84-.LFB8248
	.uleb128 .LEHE84-.LEHB84
	.uleb128 .L310-.LFB8248
	.uleb128 0
	.uleb128 .LEHB85-.LFB8248
	.uleb128 .LEHE85-.LEHB85
	.uleb128 .L280-.LFB8248
	.uleb128 0
	.uleb128 .LEHB86-.LFB8248
	.uleb128 .LEHE86-.LEHB86
	.uleb128 .L311-.LFB8248
	.uleb128 0
	.uleb128 .LEHB87-.LFB8248
	.uleb128 .LEHE87-.LEHB87
	.uleb128 .L280-.LFB8248
	.uleb128 0
	.uleb128 .LEHB88-.LFB8248
	.uleb128 .LEHE88-.LEHB88
	.uleb128 .L312-.LFB8248
	.uleb128 0
	.uleb128 .LEHB89-.LFB8248
	.uleb128 .LEHE89-.LEHB89
	.uleb128 .L280-.LFB8248
	.uleb128 0
	.uleb128 .LEHB90-.LFB8248
	.uleb128 .LEHE90-.LEHB90
	.uleb128 .L313-.LFB8248
	.uleb128 0
	.uleb128 .LEHB91-.LFB8248
	.uleb128 .LEHE91-.LEHB91
	.uleb128 .L280-.LFB8248
	.uleb128 0
	.uleb128 .LEHB92-.LFB8248
	.uleb128 .LEHE92-.LEHB92
	.uleb128 .L314-.LFB8248
	.uleb128 0
	.uleb128 .LEHB93-.LFB8248
	.uleb128 .LEHE93-.LEHB93
	.uleb128 .L280-.LFB8248
	.uleb128 0
	.uleb128 .LEHB94-.LFB8248
	.uleb128 .LEHE94-.LEHB94
	.uleb128 .L315-.LFB8248
	.uleb128 0
	.uleb128 .LEHB95-.LFB8248
	.uleb128 .LEHE95-.LEHB95
	.uleb128 .L280-.LFB8248
	.uleb128 0
	.uleb128 .LEHB96-.LFB8248
	.uleb128 .LEHE96-.LEHB96
	.uleb128 .L316-.LFB8248
	.uleb128 0
	.uleb128 .LEHB97-.LFB8248
	.uleb128 .LEHE97-.LEHB97
	.uleb128 .L280-.LFB8248
	.uleb128 0
	.uleb128 .LEHB98-.LFB8248
	.uleb128 .LEHE98-.LEHB98
	.uleb128 .L317-.LFB8248
	.uleb128 0
	.uleb128 .LEHB99-.LFB8248
	.uleb128 .LEHE99-.LEHB99
	.uleb128 .L280-.LFB8248
	.uleb128 0
	.uleb128 .LEHB100-.LFB8248
	.uleb128 .LEHE100-.LEHB100
	.uleb128 .L318-.LFB8248
	.uleb128 0
	.uleb128 .LEHB101-.LFB8248
	.uleb128 .LEHE101-.LEHB101
	.uleb128 .L280-.LFB8248
	.uleb128 0
	.uleb128 .LEHB102-.LFB8248
	.uleb128 .LEHE102-.LEHB102
	.uleb128 .L319-.LFB8248
	.uleb128 0
	.uleb128 .LEHB103-.LFB8248
	.uleb128 .LEHE103-.LEHB103
	.uleb128 .L280-.LFB8248
	.uleb128 0
	.uleb128 .LEHB104-.LFB8248
	.uleb128 .LEHE104-.LEHB104
	.uleb128 .L320-.LFB8248
	.uleb128 0
	.uleb128 .LEHB105-.LFB8248
	.uleb128 .LEHE105-.LEHB105
	.uleb128 .L280-.LFB8248
	.uleb128 0
	.uleb128 .LEHB106-.LFB8248
	.uleb128 .LEHE106-.LEHB106
	.uleb128 .L321-.LFB8248
	.uleb128 0
	.uleb128 .LEHB107-.LFB8248
	.uleb128 .LEHE107-.LEHB107
	.uleb128 .L280-.LFB8248
	.uleb128 0
	.uleb128 .LEHB108-.LFB8248
	.uleb128 .LEHE108-.LEHB108
	.uleb128 .L322-.LFB8248
	.uleb128 0
	.uleb128 .LEHB109-.LFB8248
	.uleb128 .LEHE109-.LEHB109
	.uleb128 .L280-.LFB8248
	.uleb128 0
	.uleb128 .LEHB110-.LFB8248
	.uleb128 .LEHE110-.LEHB110
	.uleb128 .L323-.LFB8248
	.uleb128 0
	.uleb128 .LEHB111-.LFB8248
	.uleb128 .LEHE111-.LEHB111
	.uleb128 .L280-.LFB8248
	.uleb128 0
	.uleb128 .LEHB112-.LFB8248
	.uleb128 .LEHE112-.LEHB112
	.uleb128 .L324-.LFB8248
	.uleb128 0
	.uleb128 .LEHB113-.LFB8248
	.uleb128 .LEHE113-.LEHB113
	.uleb128 .L280-.LFB8248
	.uleb128 0
	.uleb128 .LEHB114-.LFB8248
	.uleb128 .LEHE114-.LEHB114
	.uleb128 .L325-.LFB8248
	.uleb128 0
	.uleb128 .LEHB115-.LFB8248
	.uleb128 .LEHE115-.LEHB115
	.uleb128 .L280-.LFB8248
	.uleb128 0
	.uleb128 .LEHB116-.LFB8248
	.uleb128 .LEHE116-.LEHB116
	.uleb128 .L326-.LFB8248
	.uleb128 0
	.uleb128 .LEHB117-.LFB8248
	.uleb128 .LEHE117-.LEHB117
	.uleb128 .L280-.LFB8248
	.uleb128 0
	.uleb128 .LEHB118-.LFB8248
	.uleb128 .LEHE118-.LEHB118
	.uleb128 .L279-.LFB8248
	.uleb128 0
	.uleb128 .LEHB119-.LFB8248
	.uleb128 .LEHE119-.LEHB119
	.uleb128 0
	.uleb128 0
.LLSDACSE8248:
	.text
	.size	_Z12generateCodev, .-_Z12generateCodev
	.section	.rodata
.LC83:
	.string	"NIL"
.LC84:
	.string	"="
.LC85:
	.string	"0"
.LC86:
	.string	"ifgoto"
.LC87:
	.string	"goto"
.LC88:
	.string	"call"
.LC89:
	.string	"scan"
.LC90:
	.string	"print"
.LC91:
	.string	"ret"
.LC92:
	.string	"lineNo : "
.LC93:
	.string	", type : "
.LC94:
	.string	", op : "
.LC95:
	.string	"dest : "
.LC96:
	.string	", in1 : "
.LC97:
	.string	", in2 : "
	.text
	.globl	_Z8loadDataNSt7__cxx1112basic_stringIcSt11char_traitsIcESaIcEEE
	.type	_Z8loadDataNSt7__cxx1112basic_stringIcSt11char_traitsIcESaIcEEE, @function
_Z8loadDataNSt7__cxx1112basic_stringIcSt11char_traitsIcESaIcEEE:
.LFB8252:
	.cfi_startproc
	.cfi_personality 0x9b,DW.ref.__gxx_personality_v0
	.cfi_lsda 0x1b,.LLSDA8252
	pushq	%rbp
	.cfi_def_cfa_offset 16
	.cfi_offset 6, -16
	movq	%rsp, %rbp
	.cfi_def_cfa_register 6
	pushq	%rbx
	subq	$1240, %rsp
	.cfi_offset 3, -24
	movq	%rdi, -1240(%rbp)
	movq	%fs:40, %rax
	movq	%rax, -24(%rbp)
	xorl	%eax, %eax
	movq	-1240(%rbp), %rcx
	leaq	-544(%rbp), %rax
	movl	$8, %edx
	movq	%rcx, %rsi
	movq	%rax, %rdi
.LEHB120:
	call	_ZNSt14basic_ifstreamIcSt11char_traitsIcEEC1ERKNSt7__cxx1112basic_stringIcS1_SaIcEEESt13_Ios_Openmode@PLT
.LEHE120:
	leaq	-1200(%rbp), %rax
	movq	%rax, %rdi
	call	_ZNSt7__cxx1112basic_stringIcSt11char_traitsIcESaIcEEC1Ev@PLT
.L383:
	leaq	-1200(%rbp), %rdx
	leaq	-544(%rbp), %rax
	movq	%rdx, %rsi
	movq	%rax, %rdi
.LEHB121:
	call	_ZSt7getlineIcSt11char_traitsIcESaIcEERSt13basic_istreamIT_T0_ES7_RNSt7__cxx1112basic_stringIS4_S5_T1_EE@PLT
	movq	(%rax), %rdx
	subq	$24, %rdx
	movq	(%rdx), %rdx
	addq	%rdx, %rax
	movq	%rax, %rdi
	call	_ZNKSt9basic_iosIcSt11char_traitsIcEEcvbEv@PLT
	testb	%al, %al
	je	.L329
	movl	$8, %esi
	movl	$16, %edi
	call	_ZStorSt13_Ios_OpenmodeS_
	movl	%eax, %edx
	leaq	-1200(%rbp), %rcx
	leaq	-944(%rbp), %rax
	movq	%rcx, %rsi
	movq	%rax, %rdi
	call	_ZNSt7__cxx1118basic_stringstreamIcSt11char_traitsIcESaIcEEC1ERKNS_12basic_stringIcS2_S3_EESt13_Ios_Openmode@PLT
.LEHE121:
	leaq	-1229(%rbp), %rax
	movq	%rax, %rdi
	call	_ZNSaIcEC1Ev@PLT
	leaq	-1229(%rbp), %rdx
	leaq	-1168(%rbp), %rax
	leaq	.LC83(%rip), %rsi
	movq	%rax, %rdi
.LEHB122:
	call	_ZNSt7__cxx1112basic_stringIcSt11char_traitsIcESaIcEEC1EPKcRKS3_@PLT
.LEHE122:
	leaq	-1229(%rbp), %rax
	movq	%rax, %rdi
	call	_ZNSaIcED1Ev@PLT
	leaq	-1229(%rbp), %rax
	movq	%rax, %rdi
	call	_ZNSaIcEC1Ev@PLT
	leaq	-1229(%rbp), %rdx
	leaq	-1136(%rbp), %rax
	leaq	.LC83(%rip), %rsi
	movq	%rax, %rdi
.LEHB123:
	call	_ZNSt7__cxx1112basic_stringIcSt11char_traitsIcESaIcEEC1EPKcRKS3_@PLT
.LEHE123:
	leaq	-1229(%rbp), %rax
	movq	%rax, %rdi
	call	_ZNSaIcED1Ev@PLT
	leaq	-1229(%rbp), %rax
	movq	%rax, %rdi
	call	_ZNSaIcEC1Ev@PLT
	leaq	-1229(%rbp), %rdx
	leaq	-1104(%rbp), %rax
	leaq	.LC83(%rip), %rsi
	movq	%rax, %rdi
.LEHB124:
	call	_ZNSt7__cxx1112basic_stringIcSt11char_traitsIcESaIcEEC1EPKcRKS3_@PLT
.LEHE124:
	leaq	-1229(%rbp), %rax
	movq	%rax, %rdi
	call	_ZNSaIcED1Ev@PLT
	leaq	-1229(%rbp), %rax
	movq	%rax, %rdi
	call	_ZNSaIcEC1Ev@PLT
	leaq	-1229(%rbp), %rdx
	leaq	-1072(%rbp), %rax
	leaq	.LC83(%rip), %rsi
	movq	%rax, %rdi
.LEHB125:
	call	_ZNSt7__cxx1112basic_stringIcSt11char_traitsIcESaIcEEC1EPKcRKS3_@PLT
.LEHE125:
	leaq	-1229(%rbp), %rax
	movq	%rax, %rdi
	call	_ZNSaIcED1Ev@PLT
	leaq	-1229(%rbp), %rax
	movq	%rax, %rdi
	call	_ZNSaIcEC1Ev@PLT
	leaq	-1229(%rbp), %rdx
	leaq	-1040(%rbp), %rax
	leaq	.LC83(%rip), %rsi
	movq	%rax, %rdi
.LEHB126:
	call	_ZNSt7__cxx1112basic_stringIcSt11char_traitsIcESaIcEEC1EPKcRKS3_@PLT
.LEHE126:
	leaq	-1229(%rbp), %rax
	movq	%rax, %rdi
	call	_ZNSaIcED1Ev@PLT
	leaq	-1008(%rbp), %rax
	movq	%rax, %rdi
	call	_ZNSt7__cxx1112basic_stringIcSt11char_traitsIcESaIcEEC1Ev@PLT
	movl	$64, %esi
	movl	$1, %edi
	call	calloc@PLT
	movq	%rax, -1224(%rbp)
	movl	$64, %esi
	movl	$1, %edi
	call	calloc@PLT
	movq	%rax, -1216(%rbp)
	movl	$64, %esi
	movl	$1, %edi
	call	calloc@PLT
	movq	%rax, -1208(%rbp)
	leaq	-1168(%rbp), %rcx
	leaq	-944(%rbp), %rax
	movl	$44, %edx
	movq	%rcx, %rsi
	movq	%rax, %rdi
.LEHB127:
	call	_ZSt7getlineIcSt11char_traitsIcESaIcEERSt13basic_istreamIT_T0_ES7_RNSt7__cxx1112basic_stringIS4_S5_T1_EES4_@PLT
	leaq	-1136(%rbp), %rcx
	leaq	-944(%rbp), %rax
	movl	$44, %edx
	movq	%rcx, %rsi
	movq	%rax, %rdi
	call	_ZSt7getlineIcSt11char_traitsIcESaIcEERSt13basic_istreamIT_T0_ES7_RNSt7__cxx1112basic_stringIS4_S5_T1_EES4_@PLT
	leaq	-1136(%rbp), %rax
	leaq	.LC84(%rip), %rsi
	movq	%rax, %rdi
	call	_ZSteqIcSt11char_traitsIcESaIcEEbRKNSt7__cxx1112basic_stringIT_T0_T1_EEPKS5_
	testb	%al, %al
	je	.L330
	movl	$0, -1228(%rbp)
	leaq	-1136(%rbp), %rdx
	leaq	-1008(%rbp), %rax
	movq	%rdx, %rsi
	movq	%rax, %rdi
	call	_ZNSt7__cxx1112basic_stringIcSt11char_traitsIcESaIcEEaSERKS4_@PLT
	leaq	-1104(%rbp), %rcx
	leaq	-944(%rbp), %rax
	movl	$44, %edx
	movq	%rcx, %rsi
	movq	%rax, %rdi
	call	_ZSt7getlineIcSt11char_traitsIcESaIcEERSt13basic_istreamIT_T0_ES7_RNSt7__cxx1112basic_stringIS4_S5_T1_EES4_@PLT
	leaq	-1104(%rbp), %rdx
	leaq	-976(%rbp), %rax
	movq	%rdx, %rsi
	movq	%rax, %rdi
	call	_ZNSt7__cxx1112basic_stringIcSt11char_traitsIcESaIcEEC1ERKS4_@PLT
.LEHE127:
	leaq	-976(%rbp), %rax
	movq	%rax, %rsi
	leaq	symbolTable(%rip), %rdi
.LEHB128:
	call	_ZN11SymbolTable6lookupENSt7__cxx1112basic_stringIcSt11char_traitsIcESaIcEEE
.LEHE128:
	testq	%rax, %rax
	sete	%bl
	leaq	-976(%rbp), %rax
	movq	%rax, %rdi
	call	_ZNSt7__cxx1112basic_stringIcSt11char_traitsIcESaIcEED1Ev@PLT
	testb	%bl, %bl
	je	.L331
	leaq	-1104(%rbp), %rdx
	leaq	-976(%rbp), %rax
	movq	%rdx, %rsi
	movq	%rax, %rdi
.LEHB129:
	call	_ZNSt7__cxx1112basic_stringIcSt11char_traitsIcESaIcEEC1ERKS4_@PLT
.LEHE129:
	movq	-1208(%rbp), %rdx
	leaq	-976(%rbp), %rax
	movq	%rax, %rsi
	leaq	symbolTable(%rip), %rdi
.LEHB130:
	call	_ZN11SymbolTable6insertENSt7__cxx1112basic_stringIcSt11char_traitsIcESaIcEEEP16SymbolTableEntry
.LEHE130:
	leaq	-976(%rbp), %rax
	movq	%rax, %rdi
	call	_ZNSt7__cxx1112basic_stringIcSt11char_traitsIcESaIcEED1Ev@PLT
	movq	-1208(%rbp), %rax
	movl	$0, (%rax)
	jmp	.L332
.L331:
	leaq	-1104(%rbp), %rdx
	leaq	-976(%rbp), %rax
	movq	%rdx, %rsi
	movq	%rax, %rdi
.LEHB131:
	call	_ZNSt7__cxx1112basic_stringIcSt11char_traitsIcESaIcEEC1ERKS4_@PLT
.LEHE131:
	leaq	-976(%rbp), %rax
	movq	%rax, %rsi
	leaq	symbolTable(%rip), %rdi
.LEHB132:
	call	_ZN11SymbolTable6lookupENSt7__cxx1112basic_stringIcSt11char_traitsIcESaIcEEE
.LEHE132:
	movq	%rax, -1208(%rbp)
	leaq	-976(%rbp), %rax
	movq	%rax, %rdi
	call	_ZNSt7__cxx1112basic_stringIcSt11char_traitsIcESaIcEED1Ev@PLT
.L332:
	leaq	-1072(%rbp), %rcx
	leaq	-944(%rbp), %rax
	movl	$44, %edx
	movq	%rcx, %rsi
	movq	%rax, %rdi
.LEHB133:
	call	_ZSt7getlineIcSt11char_traitsIcESaIcEERSt13basic_istreamIT_T0_ES7_RNSt7__cxx1112basic_stringIS4_S5_T1_EES4_@PLT
	leaq	-1072(%rbp), %rdx
	leaq	-976(%rbp), %rax
	movq	%rdx, %rsi
	movq	%rax, %rdi
	call	_ZNSt7__cxx1112basic_stringIcSt11char_traitsIcESaIcEEC1ERKS4_@PLT
.LEHE133:
	leaq	-976(%rbp), %rax
	movq	%rax, %rsi
	leaq	symbolTable(%rip), %rdi
.LEHB134:
	call	_ZN11SymbolTable6lookupENSt7__cxx1112basic_stringIcSt11char_traitsIcESaIcEEE
.LEHE134:
	testq	%rax, %rax
	sete	%bl
	leaq	-976(%rbp), %rax
	movq	%rax, %rdi
	call	_ZNSt7__cxx1112basic_stringIcSt11char_traitsIcESaIcEED1Ev@PLT
	testb	%bl, %bl
	je	.L333
	leaq	-1072(%rbp), %rdx
	leaq	-976(%rbp), %rax
	movq	%rdx, %rsi
	movq	%rax, %rdi
.LEHB135:
	call	_ZNSt7__cxx1112basic_stringIcSt11char_traitsIcESaIcEEC1ERKS4_@PLT
.LEHE135:
	movq	-1224(%rbp), %rdx
	leaq	-976(%rbp), %rax
	movq	%rax, %rsi
	leaq	symbolTable(%rip), %rdi
.LEHB136:
	call	_ZN11SymbolTable6insertENSt7__cxx1112basic_stringIcSt11char_traitsIcESaIcEEEP16SymbolTableEntry
.LEHE136:
	leaq	-976(%rbp), %rax
	movq	%rax, %rdi
	call	_ZNSt7__cxx1112basic_stringIcSt11char_traitsIcESaIcEED1Ev@PLT
	leaq	-1072(%rbp), %rax
	movl	$0, %esi
	movq	%rax, %rdi
.LEHB137:
	call	_ZNSt7__cxx1112basic_stringIcSt11char_traitsIcESaIcEEixEm@PLT
	movzbl	(%rax), %eax
	movsbl	%al, %eax
	movl	%eax, %edi
	call	_Z5isNumc
	testb	%al, %al
	je	.L334
	movq	-1224(%rbp), %rax
	movl	$2, (%rax)
	leaq	-1072(%rbp), %rax
	movl	$10, %edx
	movl	$0, %esi
	movq	%rax, %rdi
	call	_ZNSt7__cxx114stoiERKNS_12basic_stringIcSt11char_traitsIcESaIcEEEPmi
	movl	%eax, %edx
	movq	-1224(%rbp), %rax
	movl	%edx, 48(%rax)
	jmp	.L337
.L334:
	movq	-1224(%rbp), %rax
	movl	$0, (%rax)
	jmp	.L337
.L333:
	leaq	-1072(%rbp), %rdx
	leaq	-976(%rbp), %rax
	movq	%rdx, %rsi
	movq	%rax, %rdi
	call	_ZNSt7__cxx1112basic_stringIcSt11char_traitsIcESaIcEEC1ERKS4_@PLT
.LEHE137:
	leaq	-976(%rbp), %rax
	movq	%rax, %rsi
	leaq	symbolTable(%rip), %rdi
.LEHB138:
	call	_ZN11SymbolTable6lookupENSt7__cxx1112basic_stringIcSt11char_traitsIcESaIcEEE
.LEHE138:
	movq	%rax, -1224(%rbp)
	leaq	-976(%rbp), %rax
	movq	%rax, %rdi
	call	_ZNSt7__cxx1112basic_stringIcSt11char_traitsIcESaIcEED1Ev@PLT
	jmp	.L337
.L330:
	leaq	-1136(%rbp), %rax
	leaq	.LC33(%rip), %rsi
	movq	%rax, %rdi
	call	_ZSteqIcSt11char_traitsIcESaIcEEbRKNSt7__cxx1112basic_stringIT_T0_T1_EEPKS5_
	testb	%al, %al
	jne	.L338
	leaq	-1136(%rbp), %rax
	leaq	.LC35(%rip), %rsi
	movq	%rax, %rdi
	call	_ZSteqIcSt11char_traitsIcESaIcEEbRKNSt7__cxx1112basic_stringIT_T0_T1_EEPKS5_
	testb	%al, %al
	jne	.L338
	leaq	-1136(%rbp), %rax
	leaq	.LC37(%rip), %rsi
	movq	%rax, %rdi
	call	_ZSteqIcSt11char_traitsIcESaIcEEbRKNSt7__cxx1112basic_stringIT_T0_T1_EEPKS5_
	testb	%al, %al
	jne	.L338
	leaq	-1136(%rbp), %rax
	leaq	.LC45(%rip), %rsi
	movq	%rax, %rdi
	call	_ZSteqIcSt11char_traitsIcESaIcEEbRKNSt7__cxx1112basic_stringIT_T0_T1_EEPKS5_
	testb	%al, %al
	jne	.L338
	leaq	-1136(%rbp), %rax
	leaq	.LC48(%rip), %rsi
	movq	%rax, %rdi
	call	_ZSteqIcSt11char_traitsIcESaIcEEbRKNSt7__cxx1112basic_stringIT_T0_T1_EEPKS5_
	testb	%al, %al
	je	.L339
.L338:
	movl	$1, %eax
	jmp	.L340
.L339:
	movl	$0, %eax
.L340:
	testb	%al, %al
	je	.L341
	movl	$1, -1228(%rbp)
	leaq	-1136(%rbp), %rdx
	leaq	-1008(%rbp), %rax
	movq	%rdx, %rsi
	movq	%rax, %rdi
.LEHB139:
	call	_ZNSt7__cxx1112basic_stringIcSt11char_traitsIcESaIcEEaSERKS4_@PLT
	leaq	-1104(%rbp), %rcx
	leaq	-944(%rbp), %rax
	movl	$44, %edx
	movq	%rcx, %rsi
	movq	%rax, %rdi
	call	_ZSt7getlineIcSt11char_traitsIcESaIcEERSt13basic_istreamIT_T0_ES7_RNSt7__cxx1112basic_stringIS4_S5_T1_EES4_@PLT
	leaq	-1104(%rbp), %rdx
	leaq	-976(%rbp), %rax
	movq	%rdx, %rsi
	movq	%rax, %rdi
	call	_ZNSt7__cxx1112basic_stringIcSt11char_traitsIcESaIcEEC1ERKS4_@PLT
.LEHE139:
	leaq	-976(%rbp), %rax
	movq	%rax, %rsi
	leaq	symbolTable(%rip), %rdi
.LEHB140:
	call	_ZN11SymbolTable6lookupENSt7__cxx1112basic_stringIcSt11char_traitsIcESaIcEEE
.LEHE140:
	testq	%rax, %rax
	sete	%bl
	leaq	-976(%rbp), %rax
	movq	%rax, %rdi
	call	_ZNSt7__cxx1112basic_stringIcSt11char_traitsIcESaIcEED1Ev@PLT
	testb	%bl, %bl
	je	.L342
	leaq	-1104(%rbp), %rdx
	leaq	-976(%rbp), %rax
	movq	%rdx, %rsi
	movq	%rax, %rdi
.LEHB141:
	call	_ZNSt7__cxx1112basic_stringIcSt11char_traitsIcESaIcEEC1ERKS4_@PLT
.LEHE141:
	movq	-1208(%rbp), %rdx
	leaq	-976(%rbp), %rax
	movq	%rax, %rsi
	leaq	symbolTable(%rip), %rdi
.LEHB142:
	call	_ZN11SymbolTable6insertENSt7__cxx1112basic_stringIcSt11char_traitsIcESaIcEEEP16SymbolTableEntry
.LEHE142:
	leaq	-976(%rbp), %rax
	movq	%rax, %rdi
	call	_ZNSt7__cxx1112basic_stringIcSt11char_traitsIcESaIcEED1Ev@PLT
	movq	-1208(%rbp), %rax
	movl	$0, (%rax)
	jmp	.L343
.L342:
	leaq	-1104(%rbp), %rdx
	leaq	-976(%rbp), %rax
	movq	%rdx, %rsi
	movq	%rax, %rdi
.LEHB143:
	call	_ZNSt7__cxx1112basic_stringIcSt11char_traitsIcESaIcEEC1ERKS4_@PLT
.LEHE143:
	leaq	-976(%rbp), %rax
	movq	%rax, %rsi
	leaq	symbolTable(%rip), %rdi
.LEHB144:
	call	_ZN11SymbolTable6lookupENSt7__cxx1112basic_stringIcSt11char_traitsIcESaIcEEE
.LEHE144:
	movq	%rax, -1208(%rbp)
	leaq	-976(%rbp), %rax
	movq	%rax, %rdi
	call	_ZNSt7__cxx1112basic_stringIcSt11char_traitsIcESaIcEED1Ev@PLT
.L343:
	leaq	-1072(%rbp), %rcx
	leaq	-944(%rbp), %rax
	movl	$44, %edx
	movq	%rcx, %rsi
	movq	%rax, %rdi
.LEHB145:
	call	_ZSt7getlineIcSt11char_traitsIcESaIcEERSt13basic_istreamIT_T0_ES7_RNSt7__cxx1112basic_stringIS4_S5_T1_EES4_@PLT
	leaq	-1040(%rbp), %rcx
	leaq	-944(%rbp), %rax
	movl	$44, %edx
	movq	%rcx, %rsi
	movq	%rax, %rdi
	call	_ZSt7getlineIcSt11char_traitsIcESaIcEERSt13basic_istreamIT_T0_ES7_RNSt7__cxx1112basic_stringIS4_S5_T1_EES4_@PLT
	leaq	-1040(%rbp), %rax
	leaq	.LC83(%rip), %rsi
	movq	%rax, %rdi
	call	_ZSteqIcSt11char_traitsIcESaIcEEbRKNSt7__cxx1112basic_stringIT_T0_T1_EEPKS5_
	testb	%al, %al
	je	.L344
	leaq	-1136(%rbp), %rax
	leaq	.LC35(%rip), %rsi
	movq	%rax, %rdi
	call	_ZSteqIcSt11char_traitsIcESaIcEEbRKNSt7__cxx1112basic_stringIT_T0_T1_EEPKS5_
	testb	%al, %al
	je	.L344
	movl	$1, %eax
	jmp	.L345
.L344:
	movl	$0, %eax
.L345:
	testb	%al, %al
	je	.L346
	leaq	-1072(%rbp), %rdx
	leaq	-1040(%rbp), %rax
	movq	%rdx, %rsi
	movq	%rax, %rdi
	call	_ZNSt7__cxx1112basic_stringIcSt11char_traitsIcESaIcEEaSERKS4_@PLT
	leaq	-1072(%rbp), %rax
	leaq	.LC85(%rip), %rsi
	movq	%rax, %rdi
	call	_ZNSt7__cxx1112basic_stringIcSt11char_traitsIcESaIcEEaSEPKc@PLT
.L346:
	leaq	-1072(%rbp), %rdx
	leaq	-976(%rbp), %rax
	movq	%rdx, %rsi
	movq	%rax, %rdi
	call	_ZNSt7__cxx1112basic_stringIcSt11char_traitsIcESaIcEEC1ERKS4_@PLT
.LEHE145:
	leaq	-976(%rbp), %rax
	movq	%rax, %rsi
	leaq	symbolTable(%rip), %rdi
.LEHB146:
	call	_ZN11SymbolTable6lookupENSt7__cxx1112basic_stringIcSt11char_traitsIcESaIcEEE
.LEHE146:
	testq	%rax, %rax
	sete	%bl
	leaq	-976(%rbp), %rax
	movq	%rax, %rdi
	call	_ZNSt7__cxx1112basic_stringIcSt11char_traitsIcESaIcEED1Ev@PLT
	testb	%bl, %bl
	je	.L347
	leaq	-1072(%rbp), %rdx
	leaq	-976(%rbp), %rax
	movq	%rdx, %rsi
	movq	%rax, %rdi
.LEHB147:
	call	_ZNSt7__cxx1112basic_stringIcSt11char_traitsIcESaIcEEC1ERKS4_@PLT
.LEHE147:
	movq	-1224(%rbp), %rdx
	leaq	-976(%rbp), %rax
	movq	%rax, %rsi
	leaq	symbolTable(%rip), %rdi
.LEHB148:
	call	_ZN11SymbolTable6insertENSt7__cxx1112basic_stringIcSt11char_traitsIcESaIcEEEP16SymbolTableEntry
.LEHE148:
	leaq	-976(%rbp), %rax
	movq	%rax, %rdi
	call	_ZNSt7__cxx1112basic_stringIcSt11char_traitsIcESaIcEED1Ev@PLT
	leaq	-1072(%rbp), %rax
	movl	$0, %esi
	movq	%rax, %rdi
.LEHB149:
	call	_ZNSt7__cxx1112basic_stringIcSt11char_traitsIcESaIcEEixEm@PLT
	movzbl	(%rax), %eax
	movsbl	%al, %eax
	movl	%eax, %edi
	call	_Z5isNumc
	testb	%al, %al
	je	.L348
	movq	-1224(%rbp), %rax
	movl	$2, (%rax)
	leaq	-1072(%rbp), %rax
	movl	$10, %edx
	movl	$0, %esi
	movq	%rax, %rdi
	call	_ZNSt7__cxx114stoiERKNS_12basic_stringIcSt11char_traitsIcESaIcEEEPmi
	movl	%eax, %edx
	movq	-1224(%rbp), %rax
	movl	%edx, 48(%rax)
	jmp	.L350
.L348:
	movq	-1224(%rbp), %rax
	movl	$0, (%rax)
	jmp	.L350
.L347:
	leaq	-1072(%rbp), %rdx
	leaq	-976(%rbp), %rax
	movq	%rdx, %rsi
	movq	%rax, %rdi
	call	_ZNSt7__cxx1112basic_stringIcSt11char_traitsIcESaIcEEC1ERKS4_@PLT
.LEHE149:
	leaq	-976(%rbp), %rax
	movq	%rax, %rsi
	leaq	symbolTable(%rip), %rdi
.LEHB150:
	call	_ZN11SymbolTable6lookupENSt7__cxx1112basic_stringIcSt11char_traitsIcESaIcEEE
.LEHE150:
	movq	%rax, -1224(%rbp)
	leaq	-976(%rbp), %rax
	movq	%rax, %rdi
	call	_ZNSt7__cxx1112basic_stringIcSt11char_traitsIcESaIcEED1Ev@PLT
.L350:
	leaq	-1040(%rbp), %rdx
	leaq	-976(%rbp), %rax
	movq	%rdx, %rsi
	movq	%rax, %rdi
.LEHB151:
	call	_ZNSt7__cxx1112basic_stringIcSt11char_traitsIcESaIcEEC1ERKS4_@PLT
.LEHE151:
	leaq	-976(%rbp), %rax
	movq	%rax, %rsi
	leaq	symbolTable(%rip), %rdi
.LEHB152:
	call	_ZN11SymbolTable6lookupENSt7__cxx1112basic_stringIcSt11char_traitsIcESaIcEEE
.LEHE152:
	testq	%rax, %rax
	sete	%bl
	leaq	-976(%rbp), %rax
	movq	%rax, %rdi
	call	_ZNSt7__cxx1112basic_stringIcSt11char_traitsIcESaIcEED1Ev@PLT
	testb	%bl, %bl
	je	.L351
	leaq	-1040(%rbp), %rdx
	leaq	-976(%rbp), %rax
	movq	%rdx, %rsi
	movq	%rax, %rdi
.LEHB153:
	call	_ZNSt7__cxx1112basic_stringIcSt11char_traitsIcESaIcEEC1ERKS4_@PLT
.LEHE153:
	movq	-1216(%rbp), %rdx
	leaq	-976(%rbp), %rax
	movq	%rax, %rsi
	leaq	symbolTable(%rip), %rdi
.LEHB154:
	call	_ZN11SymbolTable6insertENSt7__cxx1112basic_stringIcSt11char_traitsIcESaIcEEEP16SymbolTableEntry
.LEHE154:
	leaq	-976(%rbp), %rax
	movq	%rax, %rdi
	call	_ZNSt7__cxx1112basic_stringIcSt11char_traitsIcESaIcEED1Ev@PLT
	leaq	-1040(%rbp), %rax
	movl	$0, %esi
	movq	%rax, %rdi
.LEHB155:
	call	_ZNSt7__cxx1112basic_stringIcSt11char_traitsIcESaIcEEixEm@PLT
	movzbl	(%rax), %eax
	movsbl	%al, %eax
	movl	%eax, %edi
	call	_Z5isNumc
	testb	%al, %al
	je	.L352
	movq	-1216(%rbp), %rax
	movl	$2, (%rax)
	leaq	-1040(%rbp), %rax
	movl	$10, %edx
	movl	$0, %esi
	movq	%rax, %rdi
	call	_ZNSt7__cxx114stoiERKNS_12basic_stringIcSt11char_traitsIcESaIcEEEPmi
	movl	%eax, %edx
	movq	-1216(%rbp), %rax
	movl	%edx, 48(%rax)
	jmp	.L337
.L352:
	movq	-1216(%rbp), %rax
	movl	$0, (%rax)
	jmp	.L337
.L351:
	leaq	-1040(%rbp), %rdx
	leaq	-976(%rbp), %rax
	movq	%rdx, %rsi
	movq	%rax, %rdi
	call	_ZNSt7__cxx1112basic_stringIcSt11char_traitsIcESaIcEEC1ERKS4_@PLT
.LEHE155:
	leaq	-976(%rbp), %rax
	movq	%rax, %rsi
	leaq	symbolTable(%rip), %rdi
.LEHB156:
	call	_ZN11SymbolTable6lookupENSt7__cxx1112basic_stringIcSt11char_traitsIcESaIcEEE
.LEHE156:
	movq	%rax, -1216(%rbp)
	leaq	-976(%rbp), %rax
	movq	%rax, %rdi
	call	_ZNSt7__cxx1112basic_stringIcSt11char_traitsIcESaIcEED1Ev@PLT
	jmp	.L337
.L341:
	leaq	-1136(%rbp), %rax
	leaq	.LC86(%rip), %rsi
	movq	%rax, %rdi
	call	_ZSteqIcSt11char_traitsIcESaIcEEbRKNSt7__cxx1112basic_stringIT_T0_T1_EEPKS5_
	testb	%al, %al
	je	.L355
	movl	$3, -1228(%rbp)
	leaq	-1008(%rbp), %rcx
	leaq	-944(%rbp), %rax
	movl	$44, %edx
	movq	%rcx, %rsi
	movq	%rax, %rdi
.LEHB157:
	call	_ZSt7getlineIcSt11char_traitsIcESaIcEERSt13basic_istreamIT_T0_ES7_RNSt7__cxx1112basic_stringIS4_S5_T1_EES4_@PLT
	leaq	-1072(%rbp), %rcx
	leaq	-944(%rbp), %rax
	movl	$44, %edx
	movq	%rcx, %rsi
	movq	%rax, %rdi
	call	_ZSt7getlineIcSt11char_traitsIcESaIcEERSt13basic_istreamIT_T0_ES7_RNSt7__cxx1112basic_stringIS4_S5_T1_EES4_@PLT
	leaq	-1072(%rbp), %rdx
	leaq	-976(%rbp), %rax
	movq	%rdx, %rsi
	movq	%rax, %rdi
	call	_ZNSt7__cxx1112basic_stringIcSt11char_traitsIcESaIcEEC1ERKS4_@PLT
.LEHE157:
	leaq	-976(%rbp), %rax
	movq	%rax, %rsi
	leaq	symbolTable(%rip), %rdi
.LEHB158:
	call	_ZN11SymbolTable6lookupENSt7__cxx1112basic_stringIcSt11char_traitsIcESaIcEEE
.LEHE158:
	testq	%rax, %rax
	sete	%bl
	leaq	-976(%rbp), %rax
	movq	%rax, %rdi
	call	_ZNSt7__cxx1112basic_stringIcSt11char_traitsIcESaIcEED1Ev@PLT
	testb	%bl, %bl
	je	.L356
	leaq	-1072(%rbp), %rdx
	leaq	-976(%rbp), %rax
	movq	%rdx, %rsi
	movq	%rax, %rdi
.LEHB159:
	call	_ZNSt7__cxx1112basic_stringIcSt11char_traitsIcESaIcEEC1ERKS4_@PLT
.LEHE159:
	movq	-1224(%rbp), %rdx
	leaq	-976(%rbp), %rax
	movq	%rax, %rsi
	leaq	symbolTable(%rip), %rdi
.LEHB160:
	call	_ZN11SymbolTable6insertENSt7__cxx1112basic_stringIcSt11char_traitsIcESaIcEEEP16SymbolTableEntry
.LEHE160:
	leaq	-976(%rbp), %rax
	movq	%rax, %rdi
	call	_ZNSt7__cxx1112basic_stringIcSt11char_traitsIcESaIcEED1Ev@PLT
	leaq	-1072(%rbp), %rax
	movl	$0, %esi
	movq	%rax, %rdi
.LEHB161:
	call	_ZNSt7__cxx1112basic_stringIcSt11char_traitsIcESaIcEEixEm@PLT
	movzbl	(%rax), %eax
	movsbl	%al, %eax
	movl	%eax, %edi
	call	_Z5isNumc
	testb	%al, %al
	je	.L357
	movq	-1224(%rbp), %rax
	movl	$2, (%rax)
	leaq	-1072(%rbp), %rax
	movl	$10, %edx
	movl	$0, %esi
	movq	%rax, %rdi
	call	_ZNSt7__cxx114stoiERKNS_12basic_stringIcSt11char_traitsIcESaIcEEEPmi
	movl	%eax, %edx
	movq	-1224(%rbp), %rax
	movl	%edx, 48(%rax)
	jmp	.L359
.L357:
	movq	-1224(%rbp), %rax
	movl	$0, (%rax)
	jmp	.L359
.L356:
	leaq	-1072(%rbp), %rdx
	leaq	-976(%rbp), %rax
	movq	%rdx, %rsi
	movq	%rax, %rdi
	call	_ZNSt7__cxx1112basic_stringIcSt11char_traitsIcESaIcEEC1ERKS4_@PLT
.LEHE161:
	leaq	-976(%rbp), %rax
	movq	%rax, %rsi
	leaq	symbolTable(%rip), %rdi
.LEHB162:
	call	_ZN11SymbolTable6lookupENSt7__cxx1112basic_stringIcSt11char_traitsIcESaIcEEE
.LEHE162:
	movq	%rax, -1224(%rbp)
	leaq	-976(%rbp), %rax
	movq	%rax, %rdi
	call	_ZNSt7__cxx1112basic_stringIcSt11char_traitsIcESaIcEED1Ev@PLT
.L359:
	leaq	-1040(%rbp), %rcx
	leaq	-944(%rbp), %rax
	movl	$44, %edx
	movq	%rcx, %rsi
	movq	%rax, %rdi
.LEHB163:
	call	_ZSt7getlineIcSt11char_traitsIcESaIcEERSt13basic_istreamIT_T0_ES7_RNSt7__cxx1112basic_stringIS4_S5_T1_EES4_@PLT
	leaq	-1040(%rbp), %rdx
	leaq	-976(%rbp), %rax
	movq	%rdx, %rsi
	movq	%rax, %rdi
	call	_ZNSt7__cxx1112basic_stringIcSt11char_traitsIcESaIcEEC1ERKS4_@PLT
.LEHE163:
	leaq	-976(%rbp), %rax
	movq	%rax, %rsi
	leaq	symbolTable(%rip), %rdi
.LEHB164:
	call	_ZN11SymbolTable6lookupENSt7__cxx1112basic_stringIcSt11char_traitsIcESaIcEEE
.LEHE164:
	testq	%rax, %rax
	sete	%bl
	leaq	-976(%rbp), %rax
	movq	%rax, %rdi
	call	_ZNSt7__cxx1112basic_stringIcSt11char_traitsIcESaIcEED1Ev@PLT
	testb	%bl, %bl
	je	.L360
	leaq	-1040(%rbp), %rdx
	leaq	-976(%rbp), %rax
	movq	%rdx, %rsi
	movq	%rax, %rdi
.LEHB165:
	call	_ZNSt7__cxx1112basic_stringIcSt11char_traitsIcESaIcEEC1ERKS4_@PLT
.LEHE165:
	movq	-1216(%rbp), %rdx
	leaq	-976(%rbp), %rax
	movq	%rax, %rsi
	leaq	symbolTable(%rip), %rdi
.LEHB166:
	call	_ZN11SymbolTable6insertENSt7__cxx1112basic_stringIcSt11char_traitsIcESaIcEEEP16SymbolTableEntry
.LEHE166:
	leaq	-976(%rbp), %rax
	movq	%rax, %rdi
	call	_ZNSt7__cxx1112basic_stringIcSt11char_traitsIcESaIcEED1Ev@PLT
	leaq	-1040(%rbp), %rax
	movl	$0, %esi
	movq	%rax, %rdi
.LEHB167:
	call	_ZNSt7__cxx1112basic_stringIcSt11char_traitsIcESaIcEEixEm@PLT
	movzbl	(%rax), %eax
	movsbl	%al, %eax
	movl	%eax, %edi
	call	_Z5isNumc
	testb	%al, %al
	je	.L361
	movq	-1216(%rbp), %rax
	movl	$2, (%rax)
	leaq	-1040(%rbp), %rax
	movl	$10, %edx
	movl	$0, %esi
	movq	%rax, %rdi
	call	_ZNSt7__cxx114stoiERKNS_12basic_stringIcSt11char_traitsIcESaIcEEEPmi
	movl	%eax, %edx
	movq	-1216(%rbp), %rax
	movl	%edx, 48(%rax)
	jmp	.L363
.L361:
	movq	-1216(%rbp), %rax
	movl	$0, (%rax)
	jmp	.L363
.L360:
	leaq	-1040(%rbp), %rdx
	leaq	-976(%rbp), %rax
	movq	%rdx, %rsi
	movq	%rax, %rdi
	call	_ZNSt7__cxx1112basic_stringIcSt11char_traitsIcESaIcEEC1ERKS4_@PLT
.LEHE167:
	leaq	-976(%rbp), %rax
	movq	%rax, %rsi
	leaq	symbolTable(%rip), %rdi
.LEHB168:
	call	_ZN11SymbolTable6lookupENSt7__cxx1112basic_stringIcSt11char_traitsIcESaIcEEE
.LEHE168:
	movq	%rax, -1216(%rbp)
	leaq	-976(%rbp), %rax
	movq	%rax, %rdi
	call	_ZNSt7__cxx1112basic_stringIcSt11char_traitsIcESaIcEED1Ev@PLT
.L363:
	leaq	-1104(%rbp), %rcx
	leaq	-944(%rbp), %rax
	movl	$44, %edx
	movq	%rcx, %rsi
	movq	%rax, %rdi
.LEHB169:
	call	_ZSt7getlineIcSt11char_traitsIcESaIcEERSt13basic_istreamIT_T0_ES7_RNSt7__cxx1112basic_stringIS4_S5_T1_EES4_@PLT
	leaq	-1104(%rbp), %rdx
	leaq	-976(%rbp), %rax
	movq	%rdx, %rsi
	movq	%rax, %rdi
	call	_ZNSt7__cxx1112basic_stringIcSt11char_traitsIcESaIcEEC1ERKS4_@PLT
.LEHE169:
	leaq	-976(%rbp), %rax
	movq	%rax, %rsi
	leaq	symbolTable(%rip), %rdi
.LEHB170:
	call	_ZN11SymbolTable6lookupENSt7__cxx1112basic_stringIcSt11char_traitsIcESaIcEEE
.LEHE170:
	testq	%rax, %rax
	sete	%bl
	leaq	-976(%rbp), %rax
	movq	%rax, %rdi
	call	_ZNSt7__cxx1112basic_stringIcSt11char_traitsIcESaIcEED1Ev@PLT
	testb	%bl, %bl
	je	.L364
	leaq	-1104(%rbp), %rdx
	leaq	-976(%rbp), %rax
	movq	%rdx, %rsi
	movq	%rax, %rdi
.LEHB171:
	call	_ZNSt7__cxx1112basic_stringIcSt11char_traitsIcESaIcEEC1ERKS4_@PLT
.LEHE171:
	movq	-1208(%rbp), %rdx
	leaq	-976(%rbp), %rax
	movq	%rax, %rsi
	leaq	symbolTable(%rip), %rdi
.LEHB172:
	call	_ZN11SymbolTable6insertENSt7__cxx1112basic_stringIcSt11char_traitsIcESaIcEEEP16SymbolTableEntry
.LEHE172:
	leaq	-976(%rbp), %rax
	movq	%rax, %rdi
	call	_ZNSt7__cxx1112basic_stringIcSt11char_traitsIcESaIcEED1Ev@PLT
	movq	-1208(%rbp), %rax
	movl	$1, (%rax)
	jmp	.L337
.L364:
	leaq	-1104(%rbp), %rdx
	leaq	-976(%rbp), %rax
	movq	%rdx, %rsi
	movq	%rax, %rdi
.LEHB173:
	call	_ZNSt7__cxx1112basic_stringIcSt11char_traitsIcESaIcEEC1ERKS4_@PLT
.LEHE173:
	leaq	-976(%rbp), %rax
	movq	%rax, %rsi
	leaq	symbolTable(%rip), %rdi
.LEHB174:
	call	_ZN11SymbolTable6lookupENSt7__cxx1112basic_stringIcSt11char_traitsIcESaIcEEE
.LEHE174:
	movq	%rax, -1208(%rbp)
	leaq	-976(%rbp), %rax
	movq	%rax, %rdi
	call	_ZNSt7__cxx1112basic_stringIcSt11char_traitsIcESaIcEED1Ev@PLT
	jmp	.L337
.L355:
	leaq	-1136(%rbp), %rax
	leaq	.LC87(%rip), %rsi
	movq	%rax, %rdi
	call	_ZSteqIcSt11char_traitsIcESaIcEEbRKNSt7__cxx1112basic_stringIT_T0_T1_EEPKS5_
	testb	%al, %al
	je	.L366
	movl	$4, -1228(%rbp)
	leaq	-1104(%rbp), %rcx
	leaq	-944(%rbp), %rax
	movl	$44, %edx
	movq	%rcx, %rsi
	movq	%rax, %rdi
.LEHB175:
	call	_ZSt7getlineIcSt11char_traitsIcESaIcEERSt13basic_istreamIT_T0_ES7_RNSt7__cxx1112basic_stringIS4_S5_T1_EES4_@PLT
	leaq	-1104(%rbp), %rdx
	leaq	-976(%rbp), %rax
	movq	%rdx, %rsi
	movq	%rax, %rdi
	call	_ZNSt7__cxx1112basic_stringIcSt11char_traitsIcESaIcEEC1ERKS4_@PLT
.LEHE175:
	leaq	-976(%rbp), %rax
	movq	%rax, %rsi
	leaq	symbolTable(%rip), %rdi
.LEHB176:
	call	_ZN11SymbolTable6lookupENSt7__cxx1112basic_stringIcSt11char_traitsIcESaIcEEE
.LEHE176:
	testq	%rax, %rax
	sete	%bl
	leaq	-976(%rbp), %rax
	movq	%rax, %rdi
	call	_ZNSt7__cxx1112basic_stringIcSt11char_traitsIcESaIcEED1Ev@PLT
	testb	%bl, %bl
	je	.L367
	leaq	-1104(%rbp), %rdx
	leaq	-976(%rbp), %rax
	movq	%rdx, %rsi
	movq	%rax, %rdi
.LEHB177:
	call	_ZNSt7__cxx1112basic_stringIcSt11char_traitsIcESaIcEEC1ERKS4_@PLT
.LEHE177:
	movq	-1208(%rbp), %rdx
	leaq	-976(%rbp), %rax
	movq	%rax, %rsi
	leaq	symbolTable(%rip), %rdi
.LEHB178:
	call	_ZN11SymbolTable6insertENSt7__cxx1112basic_stringIcSt11char_traitsIcESaIcEEEP16SymbolTableEntry
.LEHE178:
	leaq	-976(%rbp), %rax
	movq	%rax, %rdi
	call	_ZNSt7__cxx1112basic_stringIcSt11char_traitsIcESaIcEED1Ev@PLT
	movq	-1208(%rbp), %rax
	movl	$1, (%rax)
	jmp	.L337
.L367:
	leaq	-1104(%rbp), %rdx
	leaq	-976(%rbp), %rax
	movq	%rdx, %rsi
	movq	%rax, %rdi
.LEHB179:
	call	_ZNSt7__cxx1112basic_stringIcSt11char_traitsIcESaIcEEC1ERKS4_@PLT
.LEHE179:
	leaq	-976(%rbp), %rax
	movq	%rax, %rsi
	leaq	symbolTable(%rip), %rdi
.LEHB180:
	call	_ZN11SymbolTable6lookupENSt7__cxx1112basic_stringIcSt11char_traitsIcESaIcEEE
.LEHE180:
	movq	%rax, -1208(%rbp)
	leaq	-976(%rbp), %rax
	movq	%rax, %rdi
	call	_ZNSt7__cxx1112basic_stringIcSt11char_traitsIcESaIcEED1Ev@PLT
	jmp	.L337
.L366:
	leaq	-1136(%rbp), %rax
	leaq	.LC88(%rip), %rsi
	movq	%rax, %rdi
	call	_ZSteqIcSt11char_traitsIcESaIcEEbRKNSt7__cxx1112basic_stringIT_T0_T1_EEPKS5_
	testb	%al, %al
	je	.L369
	movl	$5, -1228(%rbp)
	leaq	-1104(%rbp), %rcx
	leaq	-944(%rbp), %rax
	movl	$44, %edx
	movq	%rcx, %rsi
	movq	%rax, %rdi
.LEHB181:
	call	_ZSt7getlineIcSt11char_traitsIcESaIcEERSt13basic_istreamIT_T0_ES7_RNSt7__cxx1112basic_stringIS4_S5_T1_EES4_@PLT
	leaq	-1104(%rbp), %rdx
	leaq	-976(%rbp), %rax
	movq	%rdx, %rsi
	movq	%rax, %rdi
	call	_ZNSt7__cxx1112basic_stringIcSt11char_traitsIcESaIcEEC1ERKS4_@PLT
.LEHE181:
	leaq	-976(%rbp), %rax
	movq	%rax, %rsi
	leaq	symbolTable(%rip), %rdi
.LEHB182:
	call	_ZN11SymbolTable6lookupENSt7__cxx1112basic_stringIcSt11char_traitsIcESaIcEEE
.LEHE182:
	testq	%rax, %rax
	sete	%bl
	leaq	-976(%rbp), %rax
	movq	%rax, %rdi
	call	_ZNSt7__cxx1112basic_stringIcSt11char_traitsIcESaIcEED1Ev@PLT
	testb	%bl, %bl
	je	.L370
	leaq	-1104(%rbp), %rdx
	leaq	-976(%rbp), %rax
	movq	%rdx, %rsi
	movq	%rax, %rdi
.LEHB183:
	call	_ZNSt7__cxx1112basic_stringIcSt11char_traitsIcESaIcEEC1ERKS4_@PLT
.LEHE183:
	movq	-1208(%rbp), %rdx
	leaq	-976(%rbp), %rax
	movq	%rax, %rsi
	leaq	symbolTable(%rip), %rdi
.LEHB184:
	call	_ZN11SymbolTable6insertENSt7__cxx1112basic_stringIcSt11char_traitsIcESaIcEEEP16SymbolTableEntry
.LEHE184:
	leaq	-976(%rbp), %rax
	movq	%rax, %rdi
	call	_ZNSt7__cxx1112basic_stringIcSt11char_traitsIcESaIcEED1Ev@PLT
	movq	-1208(%rbp), %rax
	movl	$1, (%rax)
	jmp	.L337
.L370:
	leaq	-1104(%rbp), %rdx
	leaq	-976(%rbp), %rax
	movq	%rdx, %rsi
	movq	%rax, %rdi
.LEHB185:
	call	_ZNSt7__cxx1112basic_stringIcSt11char_traitsIcESaIcEEC1ERKS4_@PLT
.LEHE185:
	leaq	-976(%rbp), %rax
	movq	%rax, %rsi
	leaq	symbolTable(%rip), %rdi
.LEHB186:
	call	_ZN11SymbolTable6lookupENSt7__cxx1112basic_stringIcSt11char_traitsIcESaIcEEE
.LEHE186:
	movq	%rax, -1208(%rbp)
	leaq	-976(%rbp), %rax
	movq	%rax, %rdi
	call	_ZNSt7__cxx1112basic_stringIcSt11char_traitsIcESaIcEED1Ev@PLT
	jmp	.L337
.L369:
	leaq	-1136(%rbp), %rax
	leaq	.LC30(%rip), %rsi
	movq	%rax, %rdi
	call	_ZSteqIcSt11char_traitsIcESaIcEEbRKNSt7__cxx1112basic_stringIT_T0_T1_EEPKS5_
	testb	%al, %al
	je	.L372
	movl	$6, -1228(%rbp)
	leaq	-1104(%rbp), %rcx
	leaq	-944(%rbp), %rax
	movl	$44, %edx
	movq	%rcx, %rsi
	movq	%rax, %rdi
.LEHB187:
	call	_ZSt7getlineIcSt11char_traitsIcESaIcEERSt13basic_istreamIT_T0_ES7_RNSt7__cxx1112basic_stringIS4_S5_T1_EES4_@PLT
	leaq	-1104(%rbp), %rdx
	leaq	-976(%rbp), %rax
	movq	%rdx, %rsi
	movq	%rax, %rdi
	call	_ZNSt7__cxx1112basic_stringIcSt11char_traitsIcESaIcEEC1ERKS4_@PLT
.LEHE187:
	leaq	-976(%rbp), %rax
	movq	%rax, %rsi
	leaq	symbolTable(%rip), %rdi
.LEHB188:
	call	_ZN11SymbolTable6lookupENSt7__cxx1112basic_stringIcSt11char_traitsIcESaIcEEE
.LEHE188:
	testq	%rax, %rax
	sete	%bl
	leaq	-976(%rbp), %rax
	movq	%rax, %rdi
	call	_ZNSt7__cxx1112basic_stringIcSt11char_traitsIcESaIcEED1Ev@PLT
	testb	%bl, %bl
	je	.L373
	leaq	-1104(%rbp), %rdx
	leaq	-976(%rbp), %rax
	movq	%rdx, %rsi
	movq	%rax, %rdi
.LEHB189:
	call	_ZNSt7__cxx1112basic_stringIcSt11char_traitsIcESaIcEEC1ERKS4_@PLT
.LEHE189:
	movq	-1208(%rbp), %rdx
	leaq	-976(%rbp), %rax
	movq	%rax, %rsi
	leaq	symbolTable(%rip), %rdi
.LEHB190:
	call	_ZN11SymbolTable6insertENSt7__cxx1112basic_stringIcSt11char_traitsIcESaIcEEEP16SymbolTableEntry
.LEHE190:
	leaq	-976(%rbp), %rax
	movq	%rax, %rdi
	call	_ZNSt7__cxx1112basic_stringIcSt11char_traitsIcESaIcEED1Ev@PLT
	movq	-1208(%rbp), %rax
	movl	$1, (%rax)
	jmp	.L337
.L373:
	leaq	-1104(%rbp), %rdx
	leaq	-976(%rbp), %rax
	movq	%rdx, %rsi
	movq	%rax, %rdi
.LEHB191:
	call	_ZNSt7__cxx1112basic_stringIcSt11char_traitsIcESaIcEEC1ERKS4_@PLT
.LEHE191:
	leaq	-976(%rbp), %rax
	movq	%rax, %rsi
	leaq	symbolTable(%rip), %rdi
.LEHB192:
	call	_ZN11SymbolTable6lookupENSt7__cxx1112basic_stringIcSt11char_traitsIcESaIcEEE
.LEHE192:
	movq	%rax, -1208(%rbp)
	leaq	-976(%rbp), %rax
	movq	%rax, %rdi
	call	_ZNSt7__cxx1112basic_stringIcSt11char_traitsIcESaIcEED1Ev@PLT
	jmp	.L337
.L372:
	leaq	-1136(%rbp), %rax
	leaq	.LC89(%rip), %rsi
	movq	%rax, %rdi
	call	_ZSteqIcSt11char_traitsIcESaIcEEbRKNSt7__cxx1112basic_stringIT_T0_T1_EEPKS5_
	testb	%al, %al
	je	.L375
	movl	$7, -1228(%rbp)
	leaq	-1136(%rbp), %rdx
	leaq	-1008(%rbp), %rax
	movq	%rdx, %rsi
	movq	%rax, %rdi
.LEHB193:
	call	_ZNSt7__cxx1112basic_stringIcSt11char_traitsIcESaIcEEaSERKS4_@PLT
	leaq	-1104(%rbp), %rcx
	leaq	-944(%rbp), %rax
	movl	$44, %edx
	movq	%rcx, %rsi
	movq	%rax, %rdi
	call	_ZSt7getlineIcSt11char_traitsIcESaIcEERSt13basic_istreamIT_T0_ES7_RNSt7__cxx1112basic_stringIS4_S5_T1_EES4_@PLT
	leaq	-1104(%rbp), %rdx
	leaq	-976(%rbp), %rax
	movq	%rdx, %rsi
	movq	%rax, %rdi
	call	_ZNSt7__cxx1112basic_stringIcSt11char_traitsIcESaIcEEC1ERKS4_@PLT
.LEHE193:
	leaq	-976(%rbp), %rax
	movq	%rax, %rsi
	leaq	symbolTable(%rip), %rdi
.LEHB194:
	call	_ZN11SymbolTable6lookupENSt7__cxx1112basic_stringIcSt11char_traitsIcESaIcEEE
.LEHE194:
	testq	%rax, %rax
	sete	%bl
	leaq	-976(%rbp), %rax
	movq	%rax, %rdi
	call	_ZNSt7__cxx1112basic_stringIcSt11char_traitsIcESaIcEED1Ev@PLT
	testb	%bl, %bl
	je	.L376
	leaq	-1104(%rbp), %rdx
	leaq	-976(%rbp), %rax
	movq	%rdx, %rsi
	movq	%rax, %rdi
.LEHB195:
	call	_ZNSt7__cxx1112basic_stringIcSt11char_traitsIcESaIcEEC1ERKS4_@PLT
.LEHE195:
	movq	-1208(%rbp), %rdx
	leaq	-976(%rbp), %rax
	movq	%rax, %rsi
	leaq	symbolTable(%rip), %rdi
.LEHB196:
	call	_ZN11SymbolTable6insertENSt7__cxx1112basic_stringIcSt11char_traitsIcESaIcEEEP16SymbolTableEntry
.LEHE196:
	leaq	-976(%rbp), %rax
	movq	%rax, %rdi
	call	_ZNSt7__cxx1112basic_stringIcSt11char_traitsIcESaIcEED1Ev@PLT
	movq	-1208(%rbp), %rax
	movl	$0, (%rax)
	jmp	.L337
.L376:
	leaq	-1104(%rbp), %rdx
	leaq	-976(%rbp), %rax
	movq	%rdx, %rsi
	movq	%rax, %rdi
.LEHB197:
	call	_ZNSt7__cxx1112basic_stringIcSt11char_traitsIcESaIcEEC1ERKS4_@PLT
.LEHE197:
	leaq	-976(%rbp), %rax
	movq	%rax, %rsi
	leaq	symbolTable(%rip), %rdi
.LEHB198:
	call	_ZN11SymbolTable6lookupENSt7__cxx1112basic_stringIcSt11char_traitsIcESaIcEEE
.LEHE198:
	movq	%rax, -1208(%rbp)
	leaq	-976(%rbp), %rax
	movq	%rax, %rdi
	call	_ZNSt7__cxx1112basic_stringIcSt11char_traitsIcESaIcEED1Ev@PLT
	jmp	.L337
.L375:
	leaq	-1136(%rbp), %rax
	leaq	.LC90(%rip), %rsi
	movq	%rax, %rdi
	call	_ZSteqIcSt11char_traitsIcESaIcEEbRKNSt7__cxx1112basic_stringIT_T0_T1_EEPKS5_
	testb	%al, %al
	je	.L378
	movl	$8, -1228(%rbp)
	leaq	-1136(%rbp), %rdx
	leaq	-1008(%rbp), %rax
	movq	%rdx, %rsi
	movq	%rax, %rdi
.LEHB199:
	call	_ZNSt7__cxx1112basic_stringIcSt11char_traitsIcESaIcEEaSERKS4_@PLT
	leaq	-1072(%rbp), %rcx
	leaq	-944(%rbp), %rax
	movl	$44, %edx
	movq	%rcx, %rsi
	movq	%rax, %rdi
	call	_ZSt7getlineIcSt11char_traitsIcESaIcEERSt13basic_istreamIT_T0_ES7_RNSt7__cxx1112basic_stringIS4_S5_T1_EES4_@PLT
	leaq	-1072(%rbp), %rdx
	leaq	-976(%rbp), %rax
	movq	%rdx, %rsi
	movq	%rax, %rdi
	call	_ZNSt7__cxx1112basic_stringIcSt11char_traitsIcESaIcEEC1ERKS4_@PLT
.LEHE199:
	leaq	-976(%rbp), %rax
	movq	%rax, %rsi
	leaq	symbolTable(%rip), %rdi
.LEHB200:
	call	_ZN11SymbolTable6lookupENSt7__cxx1112basic_stringIcSt11char_traitsIcESaIcEEE
.LEHE200:
	testq	%rax, %rax
	sete	%bl
	leaq	-976(%rbp), %rax
	movq	%rax, %rdi
	call	_ZNSt7__cxx1112basic_stringIcSt11char_traitsIcESaIcEED1Ev@PLT
	testb	%bl, %bl
	je	.L379
	leaq	-1072(%rbp), %rdx
	leaq	-976(%rbp), %rax
	movq	%rdx, %rsi
	movq	%rax, %rdi
.LEHB201:
	call	_ZNSt7__cxx1112basic_stringIcSt11char_traitsIcESaIcEEC1ERKS4_@PLT
.LEHE201:
	movq	-1224(%rbp), %rdx
	leaq	-976(%rbp), %rax
	movq	%rax, %rsi
	leaq	symbolTable(%rip), %rdi
.LEHB202:
	call	_ZN11SymbolTable6insertENSt7__cxx1112basic_stringIcSt11char_traitsIcESaIcEEEP16SymbolTableEntry
.LEHE202:
	leaq	-976(%rbp), %rax
	movq	%rax, %rdi
	call	_ZNSt7__cxx1112basic_stringIcSt11char_traitsIcESaIcEED1Ev@PLT
	leaq	-1072(%rbp), %rax
	movl	$0, %esi
	movq	%rax, %rdi
.LEHB203:
	call	_ZNSt7__cxx1112basic_stringIcSt11char_traitsIcESaIcEEixEm@PLT
	movzbl	(%rax), %eax
	movsbl	%al, %eax
	movl	%eax, %edi
	call	_Z5isNumc
	testb	%al, %al
	je	.L380
	movq	-1224(%rbp), %rax
	movl	$2, (%rax)
	leaq	-1072(%rbp), %rax
	movl	$10, %edx
	movl	$0, %esi
	movq	%rax, %rdi
	call	_ZNSt7__cxx114stoiERKNS_12basic_stringIcSt11char_traitsIcESaIcEEEPmi
	movl	%eax, %edx
	movq	-1224(%rbp), %rax
	movl	%edx, 48(%rax)
	jmp	.L337
.L380:
	movq	-1224(%rbp), %rax
	movl	$0, (%rax)
	jmp	.L337
.L379:
	leaq	-1072(%rbp), %rdx
	leaq	-976(%rbp), %rax
	movq	%rdx, %rsi
	movq	%rax, %rdi
	call	_ZNSt7__cxx1112basic_stringIcSt11char_traitsIcESaIcEEC1ERKS4_@PLT
.LEHE203:
	leaq	-976(%rbp), %rax
	movq	%rax, %rsi
	leaq	symbolTable(%rip), %rdi
.LEHB204:
	call	_ZN11SymbolTable6lookupENSt7__cxx1112basic_stringIcSt11char_traitsIcESaIcEEE
.LEHE204:
	movq	%rax, -1224(%rbp)
	leaq	-976(%rbp), %rax
	movq	%rax, %rdi
	call	_ZNSt7__cxx1112basic_stringIcSt11char_traitsIcESaIcEED1Ev@PLT
	jmp	.L337
.L378:
	leaq	-1136(%rbp), %rax
	leaq	.LC91(%rip), %rsi
	movq	%rax, %rdi
	call	_ZSteqIcSt11char_traitsIcESaIcEEbRKNSt7__cxx1112basic_stringIT_T0_T1_EEPKS5_
	testb	%al, %al
	je	.L337
	movl	$9, -1228(%rbp)
	leaq	-1136(%rbp), %rdx
	leaq	-1008(%rbp), %rax
	movq	%rdx, %rsi
	movq	%rax, %rdi
.LEHB205:
	call	_ZNSt7__cxx1112basic_stringIcSt11char_traitsIcESaIcEEaSERKS4_@PLT
.L337:
	movl	noOfInstructions(%rip), %edx
	movl	noOfInstructions(%rip), %eax
	leal	1(%rdx), %ecx
	movslq	%eax, %rdx
	movq	%rdx, %rax
	salq	$2, %rax
	addq	%rdx, %rax
	addq	%rax, %rax
	addq	%rdx, %rax
	salq	$3, %rax
	movq	%rax, %rdx
	leaq	instructions(%rip), %rax
	movl	%ecx, (%rdx,%rax)
	movl	noOfInstructions(%rip), %eax
	movslq	%eax, %rdx
	movq	%rdx, %rax
	salq	$2, %rax
	addq	%rdx, %rax
	addq	%rax, %rax
	addq	%rdx, %rax
	salq	$3, %rax
	movq	%rax, %rcx
	leaq	4+instructions(%rip), %rax
	movl	-1228(%rbp), %edx
	movl	%edx, (%rcx,%rax)
	movl	noOfInstructions(%rip), %eax
	movslq	%eax, %rdx
	movq	%rdx, %rax
	salq	$2, %rax
	addq	%rdx, %rax
	addq	%rax, %rax
	addq	%rdx, %rax
	salq	$3, %rax
	leaq	instructions(%rip), %rdx
	addq	%rdx, %rax
	leaq	8(%rax), %rdx
	leaq	-1008(%rbp), %rax
	movq	%rax, %rsi
	movq	%rdx, %rdi
	call	_ZNSt7__cxx1112basic_stringIcSt11char_traitsIcESaIcEEaSERKS4_@PLT
	movl	noOfInstructions(%rip), %eax
	movslq	%eax, %rdx
	movq	%rdx, %rax
	salq	$2, %rax
	addq	%rdx, %rax
	addq	%rax, %rax
	addq	%rdx, %rax
	salq	$3, %rax
	movq	%rax, %rcx
	leaq	40+instructions(%rip), %rax
	movq	-1224(%rbp), %rdx
	movq	%rdx, (%rcx,%rax)
	movl	noOfInstructions(%rip), %eax
	movslq	%eax, %rdx
	movq	%rdx, %rax
	salq	$2, %rax
	addq	%rdx, %rax
	addq	%rax, %rax
	addq	%rdx, %rax
	salq	$3, %rax
	movq	%rax, %rcx
	leaq	48+instructions(%rip), %rax
	movq	-1216(%rbp), %rdx
	movq	%rdx, (%rcx,%rax)
	movl	noOfInstructions(%rip), %eax
	movslq	%eax, %rdx
	movq	%rdx, %rax
	salq	$2, %rax
	addq	%rdx, %rax
	addq	%rax, %rax
	addq	%rdx, %rax
	salq	$3, %rax
	movq	%rax, %rcx
	leaq	56+instructions(%rip), %rax
	movq	-1208(%rbp), %rdx
	movq	%rdx, (%rcx,%rax)
	movl	noOfInstructions(%rip), %eax
	addl	$1, %eax
	movl	%eax, noOfInstructions(%rip)
	leaq	.LC92(%rip), %rsi
	leaq	_ZSt4cout(%rip), %rdi
	call	_ZStlsISt11char_traitsIcEERSt13basic_ostreamIcT_ES5_PKc@PLT
	movq	%rax, %rdx
	leaq	-1168(%rbp), %rax
	movq	%rax, %rsi
	movq	%rdx, %rdi
	call	_ZStlsIcSt11char_traitsIcESaIcEERSt13basic_ostreamIT_T0_ES7_RKNSt7__cxx1112basic_stringIS4_S5_T1_EE@PLT
	leaq	.LC93(%rip), %rsi
	movq	%rax, %rdi
	call	_ZStlsISt11char_traitsIcEERSt13basic_ostreamIcT_ES5_PKc@PLT
	movq	%rax, %rdx
	leaq	-1136(%rbp), %rax
	movq	%rax, %rsi
	movq	%rdx, %rdi
	call	_ZStlsIcSt11char_traitsIcESaIcEERSt13basic_ostreamIT_T0_ES7_RKNSt7__cxx1112basic_stringIS4_S5_T1_EE@PLT
	leaq	.LC94(%rip), %rsi
	movq	%rax, %rdi
	call	_ZStlsISt11char_traitsIcEERSt13basic_ostreamIcT_ES5_PKc@PLT
	movq	%rax, %rdx
	leaq	-1008(%rbp), %rax
	movq	%rax, %rsi
	movq	%rdx, %rdi
	call	_ZStlsIcSt11char_traitsIcESaIcEERSt13basic_ostreamIT_T0_ES7_RKNSt7__cxx1112basic_stringIS4_S5_T1_EE@PLT
	movq	%rax, %rdx
	movq	_ZSt4endlIcSt11char_traitsIcEERSt13basic_ostreamIT_T0_ES6_@GOTPCREL(%rip), %rax
	movq	%rax, %rsi
	movq	%rdx, %rdi
	call	_ZNSolsEPFRSoS_E@PLT
	leaq	.LC95(%rip), %rsi
	leaq	_ZSt4cout(%rip), %rdi
	call	_ZStlsISt11char_traitsIcEERSt13basic_ostreamIcT_ES5_PKc@PLT
	movq	%rax, %rdx
	leaq	-1104(%rbp), %rax
	movq	%rax, %rsi
	movq	%rdx, %rdi
	call	_ZStlsIcSt11char_traitsIcESaIcEERSt13basic_ostreamIT_T0_ES7_RKNSt7__cxx1112basic_stringIS4_S5_T1_EE@PLT
	leaq	.LC96(%rip), %rsi
	movq	%rax, %rdi
	call	_ZStlsISt11char_traitsIcEERSt13basic_ostreamIcT_ES5_PKc@PLT
	movq	%rax, %rdx
	leaq	-1072(%rbp), %rax
	movq	%rax, %rsi
	movq	%rdx, %rdi
	call	_ZStlsIcSt11char_traitsIcESaIcEERSt13basic_ostreamIT_T0_ES7_RKNSt7__cxx1112basic_stringIS4_S5_T1_EE@PLT
	leaq	.LC97(%rip), %rsi
	movq	%rax, %rdi
	call	_ZStlsISt11char_traitsIcEERSt13basic_ostreamIcT_ES5_PKc@PLT
	movq	%rax, %rdx
	leaq	-1040(%rbp), %rax
	movq	%rax, %rsi
	movq	%rdx, %rdi
	call	_ZStlsIcSt11char_traitsIcESaIcEERSt13basic_ostreamIT_T0_ES7_RKNSt7__cxx1112basic_stringIS4_S5_T1_EE@PLT
	movq	%rax, %rdx
	movq	_ZSt4endlIcSt11char_traitsIcEERSt13basic_ostreamIT_T0_ES6_@GOTPCREL(%rip), %rax
	movq	%rax, %rsi
	movq	%rdx, %rdi
	call	_ZNSolsEPFRSoS_E@PLT
	movq	%rax, %rdx
	movq	_ZSt4endlIcSt11char_traitsIcEERSt13basic_ostreamIT_T0_ES6_@GOTPCREL(%rip), %rax
	movq	%rax, %rsi
	movq	%rdx, %rdi
	call	_ZNSolsEPFRSoS_E@PLT
.LEHE205:
	leaq	-1008(%rbp), %rax
	movq	%rax, %rdi
	call	_ZNSt7__cxx1112basic_stringIcSt11char_traitsIcESaIcEED1Ev@PLT
	leaq	-1040(%rbp), %rax
	movq	%rax, %rdi
	call	_ZNSt7__cxx1112basic_stringIcSt11char_traitsIcESaIcEED1Ev@PLT
	leaq	-1072(%rbp), %rax
	movq	%rax, %rdi
	call	_ZNSt7__cxx1112basic_stringIcSt11char_traitsIcESaIcEED1Ev@PLT
	leaq	-1104(%rbp), %rax
	movq	%rax, %rdi
	call	_ZNSt7__cxx1112basic_stringIcSt11char_traitsIcESaIcEED1Ev@PLT
	leaq	-1136(%rbp), %rax
	movq	%rax, %rdi
	call	_ZNSt7__cxx1112basic_stringIcSt11char_traitsIcESaIcEED1Ev@PLT
	leaq	-1168(%rbp), %rax
	movq	%rax, %rdi
	call	_ZNSt7__cxx1112basic_stringIcSt11char_traitsIcESaIcEED1Ev@PLT
	leaq	-944(%rbp), %rax
	movq	%rax, %rdi
	call	_ZNSt7__cxx1118basic_stringstreamIcSt11char_traitsIcESaIcEED1Ev@PLT
	jmp	.L383
.L329:
	leaq	-1200(%rbp), %rax
	movq	%rax, %rdi
	call	_ZNSt7__cxx1112basic_stringIcSt11char_traitsIcESaIcEED1Ev@PLT
	leaq	-544(%rbp), %rax
	movq	%rax, %rdi
	call	_ZNSt14basic_ifstreamIcSt11char_traitsIcEED1Ev@PLT
	nop
	movq	-24(%rbp), %rax
	xorq	%fs:40, %rax
	je	.L435
	jmp	.L482
.L437:
	movq	%rax, %rbx
	leaq	-1229(%rbp), %rax
	movq	%rax, %rdi
	call	_ZNSaIcED1Ev@PLT
	jmp	.L385
.L438:
	movq	%rax, %rbx
	leaq	-1229(%rbp), %rax
	movq	%rax, %rdi
	call	_ZNSaIcED1Ev@PLT
	jmp	.L387
.L439:
	movq	%rax, %rbx
	leaq	-1229(%rbp), %rax
	movq	%rax, %rdi
	call	_ZNSaIcED1Ev@PLT
	jmp	.L389
.L440:
	movq	%rax, %rbx
	leaq	-1229(%rbp), %rax
	movq	%rax, %rdi
	call	_ZNSaIcED1Ev@PLT
	jmp	.L391
.L441:
	movq	%rax, %rbx
	leaq	-1229(%rbp), %rax
	movq	%rax, %rdi
	call	_ZNSaIcED1Ev@PLT
	jmp	.L393
.L443:
	movq	%rax, %rbx
	leaq	-976(%rbp), %rax
	movq	%rax, %rdi
	call	_ZNSt7__cxx1112basic_stringIcSt11char_traitsIcESaIcEED1Ev@PLT
	jmp	.L395
.L444:
	movq	%rax, %rbx
	leaq	-976(%rbp), %rax
	movq	%rax, %rdi
	call	_ZNSt7__cxx1112basic_stringIcSt11char_traitsIcESaIcEED1Ev@PLT
	jmp	.L395
.L445:
	movq	%rax, %rbx
	leaq	-976(%rbp), %rax
	movq	%rax, %rdi
	call	_ZNSt7__cxx1112basic_stringIcSt11char_traitsIcESaIcEED1Ev@PLT
	jmp	.L395
.L446:
	movq	%rax, %rbx
	leaq	-976(%rbp), %rax
	movq	%rax, %rdi
	call	_ZNSt7__cxx1112basic_stringIcSt11char_traitsIcESaIcEED1Ev@PLT
	jmp	.L395
.L447:
	movq	%rax, %rbx
	leaq	-976(%rbp), %rax
	movq	%rax, %rdi
	call	_ZNSt7__cxx1112basic_stringIcSt11char_traitsIcESaIcEED1Ev@PLT
	jmp	.L395
.L448:
	movq	%rax, %rbx
	leaq	-976(%rbp), %rax
	movq	%rax, %rdi
	call	_ZNSt7__cxx1112basic_stringIcSt11char_traitsIcESaIcEED1Ev@PLT
	jmp	.L395
.L449:
	movq	%rax, %rbx
	leaq	-976(%rbp), %rax
	movq	%rax, %rdi
	call	_ZNSt7__cxx1112basic_stringIcSt11char_traitsIcESaIcEED1Ev@PLT
	jmp	.L395
.L450:
	movq	%rax, %rbx
	leaq	-976(%rbp), %rax
	movq	%rax, %rdi
	call	_ZNSt7__cxx1112basic_stringIcSt11char_traitsIcESaIcEED1Ev@PLT
	jmp	.L395
.L451:
	movq	%rax, %rbx
	leaq	-976(%rbp), %rax
	movq	%rax, %rdi
	call	_ZNSt7__cxx1112basic_stringIcSt11char_traitsIcESaIcEED1Ev@PLT
	jmp	.L395
.L452:
	movq	%rax, %rbx
	leaq	-976(%rbp), %rax
	movq	%rax, %rdi
	call	_ZNSt7__cxx1112basic_stringIcSt11char_traitsIcESaIcEED1Ev@PLT
	jmp	.L395
.L453:
	movq	%rax, %rbx
	leaq	-976(%rbp), %rax
	movq	%rax, %rdi
	call	_ZNSt7__cxx1112basic_stringIcSt11char_traitsIcESaIcEED1Ev@PLT
	jmp	.L395
.L454:
	movq	%rax, %rbx
	leaq	-976(%rbp), %rax
	movq	%rax, %rdi
	call	_ZNSt7__cxx1112basic_stringIcSt11char_traitsIcESaIcEED1Ev@PLT
	jmp	.L395
.L455:
	movq	%rax, %rbx
	leaq	-976(%rbp), %rax
	movq	%rax, %rdi
	call	_ZNSt7__cxx1112basic_stringIcSt11char_traitsIcESaIcEED1Ev@PLT
	jmp	.L395
.L456:
	movq	%rax, %rbx
	leaq	-976(%rbp), %rax
	movq	%rax, %rdi
	call	_ZNSt7__cxx1112basic_stringIcSt11char_traitsIcESaIcEED1Ev@PLT
	jmp	.L395
.L457:
	movq	%rax, %rbx
	leaq	-976(%rbp), %rax
	movq	%rax, %rdi
	call	_ZNSt7__cxx1112basic_stringIcSt11char_traitsIcESaIcEED1Ev@PLT
	jmp	.L395
.L458:
	movq	%rax, %rbx
	leaq	-976(%rbp), %rax
	movq	%rax, %rdi
	call	_ZNSt7__cxx1112basic_stringIcSt11char_traitsIcESaIcEED1Ev@PLT
	jmp	.L395
.L459:
	movq	%rax, %rbx
	leaq	-976(%rbp), %rax
	movq	%rax, %rdi
	call	_ZNSt7__cxx1112basic_stringIcSt11char_traitsIcESaIcEED1Ev@PLT
	jmp	.L395
.L460:
	movq	%rax, %rbx
	leaq	-976(%rbp), %rax
	movq	%rax, %rdi
	call	_ZNSt7__cxx1112basic_stringIcSt11char_traitsIcESaIcEED1Ev@PLT
	jmp	.L395
.L461:
	movq	%rax, %rbx
	leaq	-976(%rbp), %rax
	movq	%rax, %rdi
	call	_ZNSt7__cxx1112basic_stringIcSt11char_traitsIcESaIcEED1Ev@PLT
	jmp	.L395
.L462:
	movq	%rax, %rbx
	leaq	-976(%rbp), %rax
	movq	%rax, %rdi
	call	_ZNSt7__cxx1112basic_stringIcSt11char_traitsIcESaIcEED1Ev@PLT
	jmp	.L395
.L463:
	movq	%rax, %rbx
	leaq	-976(%rbp), %rax
	movq	%rax, %rdi
	call	_ZNSt7__cxx1112basic_stringIcSt11char_traitsIcESaIcEED1Ev@PLT
	jmp	.L395
.L464:
	movq	%rax, %rbx
	leaq	-976(%rbp), %rax
	movq	%rax, %rdi
	call	_ZNSt7__cxx1112basic_stringIcSt11char_traitsIcESaIcEED1Ev@PLT
	jmp	.L395
.L465:
	movq	%rax, %rbx
	leaq	-976(%rbp), %rax
	movq	%rax, %rdi
	call	_ZNSt7__cxx1112basic_stringIcSt11char_traitsIcESaIcEED1Ev@PLT
	jmp	.L395
.L466:
	movq	%rax, %rbx
	leaq	-976(%rbp), %rax
	movq	%rax, %rdi
	call	_ZNSt7__cxx1112basic_stringIcSt11char_traitsIcESaIcEED1Ev@PLT
	jmp	.L395
.L467:
	movq	%rax, %rbx
	leaq	-976(%rbp), %rax
	movq	%rax, %rdi
	call	_ZNSt7__cxx1112basic_stringIcSt11char_traitsIcESaIcEED1Ev@PLT
	jmp	.L395
.L468:
	movq	%rax, %rbx
	leaq	-976(%rbp), %rax
	movq	%rax, %rdi
	call	_ZNSt7__cxx1112basic_stringIcSt11char_traitsIcESaIcEED1Ev@PLT
	jmp	.L395
.L469:
	movq	%rax, %rbx
	leaq	-976(%rbp), %rax
	movq	%rax, %rdi
	call	_ZNSt7__cxx1112basic_stringIcSt11char_traitsIcESaIcEED1Ev@PLT
	jmp	.L395
.L470:
	movq	%rax, %rbx
	leaq	-976(%rbp), %rax
	movq	%rax, %rdi
	call	_ZNSt7__cxx1112basic_stringIcSt11char_traitsIcESaIcEED1Ev@PLT
	jmp	.L395
.L471:
	movq	%rax, %rbx
	leaq	-976(%rbp), %rax
	movq	%rax, %rdi
	call	_ZNSt7__cxx1112basic_stringIcSt11char_traitsIcESaIcEED1Ev@PLT
	jmp	.L395
.L472:
	movq	%rax, %rbx
	leaq	-976(%rbp), %rax
	movq	%rax, %rdi
	call	_ZNSt7__cxx1112basic_stringIcSt11char_traitsIcESaIcEED1Ev@PLT
	jmp	.L395
.L473:
	movq	%rax, %rbx
	leaq	-976(%rbp), %rax
	movq	%rax, %rdi
	call	_ZNSt7__cxx1112basic_stringIcSt11char_traitsIcESaIcEED1Ev@PLT
	jmp	.L395
.L474:
	movq	%rax, %rbx
	leaq	-976(%rbp), %rax
	movq	%rax, %rdi
	call	_ZNSt7__cxx1112basic_stringIcSt11char_traitsIcESaIcEED1Ev@PLT
	jmp	.L395
.L475:
	movq	%rax, %rbx
	leaq	-976(%rbp), %rax
	movq	%rax, %rdi
	call	_ZNSt7__cxx1112basic_stringIcSt11char_traitsIcESaIcEED1Ev@PLT
	jmp	.L395
.L476:
	movq	%rax, %rbx
	leaq	-976(%rbp), %rax
	movq	%rax, %rdi
	call	_ZNSt7__cxx1112basic_stringIcSt11char_traitsIcESaIcEED1Ev@PLT
	jmp	.L395
.L477:
	movq	%rax, %rbx
	leaq	-976(%rbp), %rax
	movq	%rax, %rdi
	call	_ZNSt7__cxx1112basic_stringIcSt11char_traitsIcESaIcEED1Ev@PLT
	jmp	.L395
.L478:
	movq	%rax, %rbx
	leaq	-976(%rbp), %rax
	movq	%rax, %rdi
	call	_ZNSt7__cxx1112basic_stringIcSt11char_traitsIcESaIcEED1Ev@PLT
	jmp	.L395
.L479:
	movq	%rax, %rbx
	leaq	-976(%rbp), %rax
	movq	%rax, %rdi
	call	_ZNSt7__cxx1112basic_stringIcSt11char_traitsIcESaIcEED1Ev@PLT
	jmp	.L395
.L480:
	movq	%rax, %rbx
	leaq	-976(%rbp), %rax
	movq	%rax, %rdi
	call	_ZNSt7__cxx1112basic_stringIcSt11char_traitsIcESaIcEED1Ev@PLT
	jmp	.L395
.L481:
	movq	%rax, %rbx
	leaq	-976(%rbp), %rax
	movq	%rax, %rdi
	call	_ZNSt7__cxx1112basic_stringIcSt11char_traitsIcESaIcEED1Ev@PLT
	jmp	.L395
.L442:
	movq	%rax, %rbx
.L395:
	leaq	-1008(%rbp), %rax
	movq	%rax, %rdi
	call	_ZNSt7__cxx1112basic_stringIcSt11char_traitsIcESaIcEED1Ev@PLT
	leaq	-1040(%rbp), %rax
	movq	%rax, %rdi
	call	_ZNSt7__cxx1112basic_stringIcSt11char_traitsIcESaIcEED1Ev@PLT
.L393:
	leaq	-1072(%rbp), %rax
	movq	%rax, %rdi
	call	_ZNSt7__cxx1112basic_stringIcSt11char_traitsIcESaIcEED1Ev@PLT
.L391:
	leaq	-1104(%rbp), %rax
	movq	%rax, %rdi
	call	_ZNSt7__cxx1112basic_stringIcSt11char_traitsIcESaIcEED1Ev@PLT
.L389:
	leaq	-1136(%rbp), %rax
	movq	%rax, %rdi
	call	_ZNSt7__cxx1112basic_stringIcSt11char_traitsIcESaIcEED1Ev@PLT
.L387:
	leaq	-1168(%rbp), %rax
	movq	%rax, %rdi
	call	_ZNSt7__cxx1112basic_stringIcSt11char_traitsIcESaIcEED1Ev@PLT
.L385:
	leaq	-944(%rbp), %rax
	movq	%rax, %rdi
	call	_ZNSt7__cxx1118basic_stringstreamIcSt11char_traitsIcESaIcEED1Ev@PLT
	jmp	.L434
.L436:
	movq	%rax, %rbx
.L434:
	leaq	-1200(%rbp), %rax
	movq	%rax, %rdi
	call	_ZNSt7__cxx1112basic_stringIcSt11char_traitsIcESaIcEED1Ev@PLT
	leaq	-544(%rbp), %rax
	movq	%rax, %rdi
	call	_ZNSt14basic_ifstreamIcSt11char_traitsIcEED1Ev@PLT
	movq	%rbx, %rax
	movq	%rax, %rdi
.LEHB206:
	call	_Unwind_Resume@PLT
.LEHE206:
.L482:
	call	__stack_chk_fail@PLT
.L435:
	addq	$1240, %rsp
	popq	%rbx
	popq	%rbp
	.cfi_def_cfa 7, 8
	ret
	.cfi_endproc
.LFE8252:
	.section	.gcc_except_table
.LLSDA8252:
	.byte	0xff
	.byte	0xff
	.byte	0x1
	.uleb128 .LLSDACSE8252-.LLSDACSB8252
.LLSDACSB8252:
	.uleb128 .LEHB120-.LFB8252
	.uleb128 .LEHE120-.LEHB120
	.uleb128 0
	.uleb128 0
	.uleb128 .LEHB121-.LFB8252
	.uleb128 .LEHE121-.LEHB121
	.uleb128 .L436-.LFB8252
	.uleb128 0
	.uleb128 .LEHB122-.LFB8252
	.uleb128 .LEHE122-.LEHB122
	.uleb128 .L437-.LFB8252
	.uleb128 0
	.uleb128 .LEHB123-.LFB8252
	.uleb128 .LEHE123-.LEHB123
	.uleb128 .L438-.LFB8252
	.uleb128 0
	.uleb128 .LEHB124-.LFB8252
	.uleb128 .LEHE124-.LEHB124
	.uleb128 .L439-.LFB8252
	.uleb128 0
	.uleb128 .LEHB125-.LFB8252
	.uleb128 .LEHE125-.LEHB125
	.uleb128 .L440-.LFB8252
	.uleb128 0
	.uleb128 .LEHB126-.LFB8252
	.uleb128 .LEHE126-.LEHB126
	.uleb128 .L441-.LFB8252
	.uleb128 0
	.uleb128 .LEHB127-.LFB8252
	.uleb128 .LEHE127-.LEHB127
	.uleb128 .L442-.LFB8252
	.uleb128 0
	.uleb128 .LEHB128-.LFB8252
	.uleb128 .LEHE128-.LEHB128
	.uleb128 .L443-.LFB8252
	.uleb128 0
	.uleb128 .LEHB129-.LFB8252
	.uleb128 .LEHE129-.LEHB129
	.uleb128 .L442-.LFB8252
	.uleb128 0
	.uleb128 .LEHB130-.LFB8252
	.uleb128 .LEHE130-.LEHB130
	.uleb128 .L444-.LFB8252
	.uleb128 0
	.uleb128 .LEHB131-.LFB8252
	.uleb128 .LEHE131-.LEHB131
	.uleb128 .L442-.LFB8252
	.uleb128 0
	.uleb128 .LEHB132-.LFB8252
	.uleb128 .LEHE132-.LEHB132
	.uleb128 .L445-.LFB8252
	.uleb128 0
	.uleb128 .LEHB133-.LFB8252
	.uleb128 .LEHE133-.LEHB133
	.uleb128 .L442-.LFB8252
	.uleb128 0
	.uleb128 .LEHB134-.LFB8252
	.uleb128 .LEHE134-.LEHB134
	.uleb128 .L446-.LFB8252
	.uleb128 0
	.uleb128 .LEHB135-.LFB8252
	.uleb128 .LEHE135-.LEHB135
	.uleb128 .L442-.LFB8252
	.uleb128 0
	.uleb128 .LEHB136-.LFB8252
	.uleb128 .LEHE136-.LEHB136
	.uleb128 .L447-.LFB8252
	.uleb128 0
	.uleb128 .LEHB137-.LFB8252
	.uleb128 .LEHE137-.LEHB137
	.uleb128 .L442-.LFB8252
	.uleb128 0
	.uleb128 .LEHB138-.LFB8252
	.uleb128 .LEHE138-.LEHB138
	.uleb128 .L448-.LFB8252
	.uleb128 0
	.uleb128 .LEHB139-.LFB8252
	.uleb128 .LEHE139-.LEHB139
	.uleb128 .L442-.LFB8252
	.uleb128 0
	.uleb128 .LEHB140-.LFB8252
	.uleb128 .LEHE140-.LEHB140
	.uleb128 .L449-.LFB8252
	.uleb128 0
	.uleb128 .LEHB141-.LFB8252
	.uleb128 .LEHE141-.LEHB141
	.uleb128 .L442-.LFB8252
	.uleb128 0
	.uleb128 .LEHB142-.LFB8252
	.uleb128 .LEHE142-.LEHB142
	.uleb128 .L450-.LFB8252
	.uleb128 0
	.uleb128 .LEHB143-.LFB8252
	.uleb128 .LEHE143-.LEHB143
	.uleb128 .L442-.LFB8252
	.uleb128 0
	.uleb128 .LEHB144-.LFB8252
	.uleb128 .LEHE144-.LEHB144
	.uleb128 .L451-.LFB8252
	.uleb128 0
	.uleb128 .LEHB145-.LFB8252
	.uleb128 .LEHE145-.LEHB145
	.uleb128 .L442-.LFB8252
	.uleb128 0
	.uleb128 .LEHB146-.LFB8252
	.uleb128 .LEHE146-.LEHB146
	.uleb128 .L452-.LFB8252
	.uleb128 0
	.uleb128 .LEHB147-.LFB8252
	.uleb128 .LEHE147-.LEHB147
	.uleb128 .L442-.LFB8252
	.uleb128 0
	.uleb128 .LEHB148-.LFB8252
	.uleb128 .LEHE148-.LEHB148
	.uleb128 .L453-.LFB8252
	.uleb128 0
	.uleb128 .LEHB149-.LFB8252
	.uleb128 .LEHE149-.LEHB149
	.uleb128 .L442-.LFB8252
	.uleb128 0
	.uleb128 .LEHB150-.LFB8252
	.uleb128 .LEHE150-.LEHB150
	.uleb128 .L454-.LFB8252
	.uleb128 0
	.uleb128 .LEHB151-.LFB8252
	.uleb128 .LEHE151-.LEHB151
	.uleb128 .L442-.LFB8252
	.uleb128 0
	.uleb128 .LEHB152-.LFB8252
	.uleb128 .LEHE152-.LEHB152
	.uleb128 .L455-.LFB8252
	.uleb128 0
	.uleb128 .LEHB153-.LFB8252
	.uleb128 .LEHE153-.LEHB153
	.uleb128 .L442-.LFB8252
	.uleb128 0
	.uleb128 .LEHB154-.LFB8252
	.uleb128 .LEHE154-.LEHB154
	.uleb128 .L456-.LFB8252
	.uleb128 0
	.uleb128 .LEHB155-.LFB8252
	.uleb128 .LEHE155-.LEHB155
	.uleb128 .L442-.LFB8252
	.uleb128 0
	.uleb128 .LEHB156-.LFB8252
	.uleb128 .LEHE156-.LEHB156
	.uleb128 .L457-.LFB8252
	.uleb128 0
	.uleb128 .LEHB157-.LFB8252
	.uleb128 .LEHE157-.LEHB157
	.uleb128 .L442-.LFB8252
	.uleb128 0
	.uleb128 .LEHB158-.LFB8252
	.uleb128 .LEHE158-.LEHB158
	.uleb128 .L458-.LFB8252
	.uleb128 0
	.uleb128 .LEHB159-.LFB8252
	.uleb128 .LEHE159-.LEHB159
	.uleb128 .L442-.LFB8252
	.uleb128 0
	.uleb128 .LEHB160-.LFB8252
	.uleb128 .LEHE160-.LEHB160
	.uleb128 .L459-.LFB8252
	.uleb128 0
	.uleb128 .LEHB161-.LFB8252
	.uleb128 .LEHE161-.LEHB161
	.uleb128 .L442-.LFB8252
	.uleb128 0
	.uleb128 .LEHB162-.LFB8252
	.uleb128 .LEHE162-.LEHB162
	.uleb128 .L460-.LFB8252
	.uleb128 0
	.uleb128 .LEHB163-.LFB8252
	.uleb128 .LEHE163-.LEHB163
	.uleb128 .L442-.LFB8252
	.uleb128 0
	.uleb128 .LEHB164-.LFB8252
	.uleb128 .LEHE164-.LEHB164
	.uleb128 .L461-.LFB8252
	.uleb128 0
	.uleb128 .LEHB165-.LFB8252
	.uleb128 .LEHE165-.LEHB165
	.uleb128 .L442-.LFB8252
	.uleb128 0
	.uleb128 .LEHB166-.LFB8252
	.uleb128 .LEHE166-.LEHB166
	.uleb128 .L462-.LFB8252
	.uleb128 0
	.uleb128 .LEHB167-.LFB8252
	.uleb128 .LEHE167-.LEHB167
	.uleb128 .L442-.LFB8252
	.uleb128 0
	.uleb128 .LEHB168-.LFB8252
	.uleb128 .LEHE168-.LEHB168
	.uleb128 .L463-.LFB8252
	.uleb128 0
	.uleb128 .LEHB169-.LFB8252
	.uleb128 .LEHE169-.LEHB169
	.uleb128 .L442-.LFB8252
	.uleb128 0
	.uleb128 .LEHB170-.LFB8252
	.uleb128 .LEHE170-.LEHB170
	.uleb128 .L464-.LFB8252
	.uleb128 0
	.uleb128 .LEHB171-.LFB8252
	.uleb128 .LEHE171-.LEHB171
	.uleb128 .L442-.LFB8252
	.uleb128 0
	.uleb128 .LEHB172-.LFB8252
	.uleb128 .LEHE172-.LEHB172
	.uleb128 .L465-.LFB8252
	.uleb128 0
	.uleb128 .LEHB173-.LFB8252
	.uleb128 .LEHE173-.LEHB173
	.uleb128 .L442-.LFB8252
	.uleb128 0
	.uleb128 .LEHB174-.LFB8252
	.uleb128 .LEHE174-.LEHB174
	.uleb128 .L466-.LFB8252
	.uleb128 0
	.uleb128 .LEHB175-.LFB8252
	.uleb128 .LEHE175-.LEHB175
	.uleb128 .L442-.LFB8252
	.uleb128 0
	.uleb128 .LEHB176-.LFB8252
	.uleb128 .LEHE176-.LEHB176
	.uleb128 .L467-.LFB8252
	.uleb128 0
	.uleb128 .LEHB177-.LFB8252
	.uleb128 .LEHE177-.LEHB177
	.uleb128 .L442-.LFB8252
	.uleb128 0
	.uleb128 .LEHB178-.LFB8252
	.uleb128 .LEHE178-.LEHB178
	.uleb128 .L468-.LFB8252
	.uleb128 0
	.uleb128 .LEHB179-.LFB8252
	.uleb128 .LEHE179-.LEHB179
	.uleb128 .L442-.LFB8252
	.uleb128 0
	.uleb128 .LEHB180-.LFB8252
	.uleb128 .LEHE180-.LEHB180
	.uleb128 .L469-.LFB8252
	.uleb128 0
	.uleb128 .LEHB181-.LFB8252
	.uleb128 .LEHE181-.LEHB181
	.uleb128 .L442-.LFB8252
	.uleb128 0
	.uleb128 .LEHB182-.LFB8252
	.uleb128 .LEHE182-.LEHB182
	.uleb128 .L470-.LFB8252
	.uleb128 0
	.uleb128 .LEHB183-.LFB8252
	.uleb128 .LEHE183-.LEHB183
	.uleb128 .L442-.LFB8252
	.uleb128 0
	.uleb128 .LEHB184-.LFB8252
	.uleb128 .LEHE184-.LEHB184
	.uleb128 .L471-.LFB8252
	.uleb128 0
	.uleb128 .LEHB185-.LFB8252
	.uleb128 .LEHE185-.LEHB185
	.uleb128 .L442-.LFB8252
	.uleb128 0
	.uleb128 .LEHB186-.LFB8252
	.uleb128 .LEHE186-.LEHB186
	.uleb128 .L472-.LFB8252
	.uleb128 0
	.uleb128 .LEHB187-.LFB8252
	.uleb128 .LEHE187-.LEHB187
	.uleb128 .L442-.LFB8252
	.uleb128 0
	.uleb128 .LEHB188-.LFB8252
	.uleb128 .LEHE188-.LEHB188
	.uleb128 .L473-.LFB8252
	.uleb128 0
	.uleb128 .LEHB189-.LFB8252
	.uleb128 .LEHE189-.LEHB189
	.uleb128 .L442-.LFB8252
	.uleb128 0
	.uleb128 .LEHB190-.LFB8252
	.uleb128 .LEHE190-.LEHB190
	.uleb128 .L474-.LFB8252
	.uleb128 0
	.uleb128 .LEHB191-.LFB8252
	.uleb128 .LEHE191-.LEHB191
	.uleb128 .L442-.LFB8252
	.uleb128 0
	.uleb128 .LEHB192-.LFB8252
	.uleb128 .LEHE192-.LEHB192
	.uleb128 .L475-.LFB8252
	.uleb128 0
	.uleb128 .LEHB193-.LFB8252
	.uleb128 .LEHE193-.LEHB193
	.uleb128 .L442-.LFB8252
	.uleb128 0
	.uleb128 .LEHB194-.LFB8252
	.uleb128 .LEHE194-.LEHB194
	.uleb128 .L476-.LFB8252
	.uleb128 0
	.uleb128 .LEHB195-.LFB8252
	.uleb128 .LEHE195-.LEHB195
	.uleb128 .L442-.LFB8252
	.uleb128 0
	.uleb128 .LEHB196-.LFB8252
	.uleb128 .LEHE196-.LEHB196
	.uleb128 .L477-.LFB8252
	.uleb128 0
	.uleb128 .LEHB197-.LFB8252
	.uleb128 .LEHE197-.LEHB197
	.uleb128 .L442-.LFB8252
	.uleb128 0
	.uleb128 .LEHB198-.LFB8252
	.uleb128 .LEHE198-.LEHB198
	.uleb128 .L478-.LFB8252
	.uleb128 0
	.uleb128 .LEHB199-.LFB8252
	.uleb128 .LEHE199-.LEHB199
	.uleb128 .L442-.LFB8252
	.uleb128 0
	.uleb128 .LEHB200-.LFB8252
	.uleb128 .LEHE200-.LEHB200
	.uleb128 .L479-.LFB8252
	.uleb128 0
	.uleb128 .LEHB201-.LFB8252
	.uleb128 .LEHE201-.LEHB201
	.uleb128 .L442-.LFB8252
	.uleb128 0
	.uleb128 .LEHB202-.LFB8252
	.uleb128 .LEHE202-.LEHB202
	.uleb128 .L480-.LFB8252
	.uleb128 0
	.uleb128 .LEHB203-.LFB8252
	.uleb128 .LEHE203-.LEHB203
	.uleb128 .L442-.LFB8252
	.uleb128 0
	.uleb128 .LEHB204-.LFB8252
	.uleb128 .LEHE204-.LEHB204
	.uleb128 .L481-.LFB8252
	.uleb128 0
	.uleb128 .LEHB205-.LFB8252
	.uleb128 .LEHE205-.LEHB205
	.uleb128 .L442-.LFB8252
	.uleb128 0
	.uleb128 .LEHB206-.LFB8252
	.uleb128 .LEHE206-.LEHB206
	.uleb128 0
	.uleb128 0
.LLSDACSE8252:
	.text
	.size	_Z8loadDataNSt7__cxx1112basic_stringIcSt11char_traitsIcESaIcEEE, .-_Z8loadDataNSt7__cxx1112basic_stringIcSt11char_traitsIcESaIcEEE
	.globl	_Z22getTargetLabelLocationP16SymbolTableEntry
	.type	_Z22getTargetLabelLocationP16SymbolTableEntry, @function
_Z22getTargetLabelLocationP16SymbolTableEntry:
.LFB8253:
	.cfi_startproc
	pushq	%rbp
	.cfi_def_cfa_offset 16
	.cfi_offset 6, -16
	movq	%rsp, %rbp
	.cfi_def_cfa_register 6
	movq	%rdi, -24(%rbp)
	movl	$0, -4(%rbp)
.L487:
	movl	noOfInstructions(%rip), %eax
	cmpl	%eax, -4(%rbp)
	jge	.L484
	movl	-4(%rbp), %eax
	movslq	%eax, %rdx
	movq	%rdx, %rax
	salq	$2, %rax
	addq	%rdx, %rax
	addq	%rax, %rax
	addq	%rdx, %rax
	salq	$3, %rax
	movq	%rax, %rdx
	leaq	4+instructions(%rip), %rax
	movl	(%rdx,%rax), %eax
	cmpl	$6, %eax
	jne	.L485
	movl	-4(%rbp), %eax
	movslq	%eax, %rdx
	movq	%rdx, %rax
	salq	$2, %rax
	addq	%rdx, %rax
	addq	%rax, %rax
	addq	%rdx, %rax
	salq	$3, %rax
	movq	%rax, %rdx
	leaq	56+instructions(%rip), %rax
	movq	(%rdx,%rax), %rax
	cmpq	%rax, -24(%rbp)
	jne	.L485
	movl	-4(%rbp), %eax
	movslq	%eax, %rdx
	movq	%rdx, %rax
	salq	$2, %rax
	addq	%rdx, %rax
	addq	%rax, %rax
	addq	%rdx, %rax
	salq	$3, %rax
	movq	%rax, %rdx
	leaq	instructions(%rip), %rax
	movl	(%rdx,%rax), %eax
	jmp	.L486
.L485:
	addl	$1, -4(%rbp)
	jmp	.L487
.L484:
	movl	$-1, %eax
.L486:
	popq	%rbp
	.cfi_def_cfa 7, 8
	ret
	.cfi_endproc
.LFE8253:
	.size	_Z22getTargetLabelLocationP16SymbolTableEntry, .-_Z22getTargetLabelLocationP16SymbolTableEntry
	.globl	_Z11findLeadersv
	.type	_Z11findLeadersv, @function
_Z11findLeadersv:
.LFB8254:
	.cfi_startproc
	pushq	%rbp
	.cfi_def_cfa_offset 16
	.cfi_offset 6, -16
	movq	%rsp, %rbp
	.cfi_def_cfa_register 6
	subq	$32, %rsp
	movq	%fs:40, %rax
	movq	%rax, -8(%rbp)
	xorl	%eax, %eax
	movl	$1, -16(%rbp)
	leaq	-16(%rbp), %rax
	movq	%rax, %rsi
	leaq	leaders(%rip), %rdi
	call	_ZNSt3setIiSt4lessIiESaIiEE6insertEOi
	movl	$0, -12(%rbp)
.L498:
	movl	noOfInstructions(%rip), %eax
	cmpl	%eax, -12(%rbp)
	jge	.L500
	movl	-12(%rbp), %eax
	movslq	%eax, %rdx
	movq	%rdx, %rax
	salq	$2, %rax
	addq	%rdx, %rax
	addq	%rax, %rax
	addq	%rdx, %rax
	salq	$3, %rax
	movq	%rax, %rdx
	leaq	4+instructions(%rip), %rax
	movl	(%rdx,%rax), %eax
	cmpl	$4, %eax
	je	.L490
	movl	-12(%rbp), %eax
	movslq	%eax, %rdx
	movq	%rdx, %rax
	salq	$2, %rax
	addq	%rdx, %rax
	addq	%rax, %rax
	addq	%rdx, %rax
	salq	$3, %rax
	movq	%rax, %rdx
	leaq	4+instructions(%rip), %rax
	movl	(%rdx,%rax), %eax
	cmpl	$3, %eax
	jne	.L491
.L490:
	movl	-12(%rbp), %eax
	movslq	%eax, %rdx
	movq	%rdx, %rax
	salq	$2, %rax
	addq	%rdx, %rax
	addq	%rax, %rax
	addq	%rdx, %rax
	salq	$3, %rax
	movq	%rax, %rdx
	leaq	56+instructions(%rip), %rax
	movq	(%rdx,%rax), %rax
	movq	%rax, %rdi
	call	_Z22getTargetLabelLocationP16SymbolTableEntry
	movl	%eax, -20(%rbp)
	movl	-20(%rbp), %eax
	cmpl	$-1, %eax
	je	.L492
	leaq	-20(%rbp), %rax
	movq	%rax, %rsi
	leaq	leaders(%rip), %rdi
	call	_ZNSt3setIiSt4lessIiESaIiEE6insertERKi
.L492:
	movl	-12(%rbp), %eax
	leal	2(%rax), %edx
	movl	noOfInstructions(%rip), %eax
	cmpl	%eax, %edx
	jg	.L491
	movl	-12(%rbp), %eax
	addl	$2, %eax
	movl	%eax, -16(%rbp)
	leaq	-16(%rbp), %rax
	movq	%rax, %rsi
	leaq	leaders(%rip), %rdi
	call	_ZNSt3setIiSt4lessIiESaIiEE6insertEOi
.L491:
	movl	-12(%rbp), %eax
	movslq	%eax, %rdx
	movq	%rdx, %rax
	salq	$2, %rax
	addq	%rdx, %rax
	addq	%rax, %rax
	addq	%rdx, %rax
	salq	$3, %rax
	movq	%rax, %rdx
	leaq	4+instructions(%rip), %rax
	movl	(%rdx,%rax), %eax
	cmpl	$5, %eax
	jne	.L494
	movl	-12(%rbp), %eax
	movslq	%eax, %rdx
	movq	%rdx, %rax
	salq	$2, %rax
	addq	%rdx, %rax
	addq	%rax, %rax
	addq	%rdx, %rax
	salq	$3, %rax
	movq	%rax, %rdx
	leaq	56+instructions(%rip), %rax
	movq	(%rdx,%rax), %rax
	movq	%rax, %rdi
	call	_Z22getTargetLabelLocationP16SymbolTableEntry
	movl	%eax, -20(%rbp)
	movl	-20(%rbp), %eax
	cmpl	$-1, %eax
	je	.L495
	leaq	-20(%rbp), %rax
	movq	%rax, %rsi
	leaq	leaders(%rip), %rdi
	call	_ZNSt3setIiSt4lessIiESaIiEE6insertERKi
.L495:
	movl	-12(%rbp), %eax
	leal	2(%rax), %edx
	movl	noOfInstructions(%rip), %eax
	cmpl	%eax, %edx
	jg	.L494
	movl	-12(%rbp), %eax
	addl	$2, %eax
	movl	%eax, -16(%rbp)
	leaq	-16(%rbp), %rax
	movq	%rax, %rsi
	leaq	leaders(%rip), %rdi
	call	_ZNSt3setIiSt4lessIiESaIiEE6insertEOi
.L494:
	movl	-12(%rbp), %eax
	movslq	%eax, %rdx
	movq	%rdx, %rax
	salq	$2, %rax
	addq	%rdx, %rax
	addq	%rax, %rax
	addq	%rdx, %rax
	salq	$3, %rax
	movq	%rax, %rdx
	leaq	4+instructions(%rip), %rax
	movl	(%rdx,%rax), %eax
	cmpl	$9, %eax
	jne	.L497
	movl	-12(%rbp), %eax
	leal	2(%rax), %edx
	movl	noOfInstructions(%rip), %eax
	cmpl	%eax, %edx
	jg	.L497
	movl	-12(%rbp), %eax
	addl	$2, %eax
	movl	%eax, -16(%rbp)
	leaq	-16(%rbp), %rax
	movq	%rax, %rsi
	leaq	leaders(%rip), %rdi
	call	_ZNSt3setIiSt4lessIiESaIiEE6insertEOi
.L497:
	addl	$1, -12(%rbp)
	jmp	.L498
.L500:
	nop
	movq	-8(%rbp), %rax
	xorq	%fs:40, %rax
	je	.L499
	call	__stack_chk_fail@PLT
.L499:
	leave
	.cfi_def_cfa 7, 8
	ret
	.cfi_endproc
.LFE8254:
	.size	_Z11findLeadersv, .-_Z11findLeadersv
	.globl	_Z9findBlocki
	.type	_Z9findBlocki, @function
_Z9findBlocki:
.LFB8255:
	.cfi_startproc
	pushq	%rbp
	.cfi_def_cfa_offset 16
	.cfi_offset 6, -16
	movq	%rsp, %rbp
	.cfi_def_cfa_register 6
	movl	%edi, -20(%rbp)
	movl	$0, -8(%rbp)
	movl	$0, -4(%rbp)
.L505:
	movl	noOfBasicBlocks(%rip), %eax
	cmpl	%eax, -4(%rbp)
	jge	.L502
	movl	-4(%rbp), %eax
	movslq	%eax, %rdx
	movq	%rdx, %rax
	addq	%rax, %rax
	addq	%rdx, %rax
	salq	$3, %rax
	movq	%rax, %rdx
	leaq	8+basicBlocks(%rip), %rax
	movl	(%rdx,%rax), %eax
	addl	%eax, -8(%rbp)
	movl	-20(%rbp), %eax
	cmpl	-8(%rbp), %eax
	jg	.L503
	movl	-4(%rbp), %eax
	jmp	.L504
.L503:
	addl	$1, -4(%rbp)
	jmp	.L505
.L502:
	movl	$-1, %eax
.L504:
	popq	%rbp
	.cfi_def_cfa 7, 8
	ret
	.cfi_endproc
.LFE8255:
	.size	_Z9findBlocki, .-_Z9findBlocki
	.globl	_Z17assignBasicBlocksv
	.type	_Z17assignBasicBlocksv, @function
_Z17assignBasicBlocksv:
.LFB8256:
	.cfi_startproc
	pushq	%rbp
	.cfi_def_cfa_offset 16
	.cfi_offset 6, -16
	movq	%rsp, %rbp
	.cfi_def_cfa_register 6
	pushq	%rbx
	subq	$168, %rsp
	.cfi_offset 3, -24
	movq	%fs:40, %rax
	movq	%rax, -24(%rbp)
	xorl	%eax, %eax
	leaq	leaders(%rip), %rdi
	call	_ZNKSt3setIiSt4lessIiESaIiEE5beginEv
	movq	%rax, -144(%rbp)
	leaq	leaders(%rip), %rdi
	call	_ZNKSt3setIiSt4lessIiESaIiEE5beginEv
	movq	%rax, -128(%rbp)
	leaq	-128(%rbp), %rax
	movq	%rax, %rdi
	call	_ZNSt23_Rb_tree_const_iteratorIiEppEv
	movq	(%rax), %rax
	movq	%rax, -136(%rbp)
	movl	$0, -164(%rbp)
.L512:
	movl	noOfBasicBlocks(%rip), %eax
	cmpl	%eax, -164(%rbp)
	jge	.L507
	leaq	leaders(%rip), %rdi
	call	_ZNKSt3setIiSt4lessIiESaIiEE3endEv
	movq	%rax, -128(%rbp)
	leaq	-128(%rbp), %rdx
	leaq	-144(%rbp), %rax
	movq	%rdx, %rsi
	movq	%rax, %rdi
	call	_ZNKSt23_Rb_tree_const_iteratorIiEneERKS0_
	testb	%al, %al
	je	.L507
	movl	$1, %eax
	jmp	.L508
.L507:
	movl	$0, %eax
.L508:
	testb	%al, %al
	je	.L509
	leaq	-144(%rbp), %rax
	movq	%rax, %rdi
	call	_ZNKSt23_Rb_tree_const_iteratorIiEdeEv
	movl	(%rax), %eax
	movslq	%eax, %rdx
	movq	%rdx, %rax
	salq	$2, %rax
	addq	%rdx, %rax
	addq	%rax, %rax
	addq	%rdx, %rax
	salq	$3, %rax
	leaq	-88(%rax), %rdx
	leaq	instructions(%rip), %rax
	leaq	(%rdx,%rax), %rcx
	movl	-164(%rbp), %eax
	movslq	%eax, %rdx
	movq	%rdx, %rax
	addq	%rax, %rax
	addq	%rdx, %rax
	salq	$3, %rax
	movq	%rax, %rdx
	leaq	basicBlocks(%rip), %rax
	movq	%rcx, (%rdx,%rax)
	movl	-164(%rbp), %eax
	movslq	%eax, %rdx
	movq	%rdx, %rax
	addq	%rax, %rax
	addq	%rdx, %rax
	salq	$3, %rax
	movq	%rax, %rcx
	leaq	12+basicBlocks(%rip), %rax
	movl	-164(%rbp), %edx
	movl	%edx, (%rcx,%rax)
	movl	noOfBasicBlocks(%rip), %eax
	subl	$1, %eax
	cmpl	%eax, -164(%rbp)
	jge	.L510
	leaq	-136(%rbp), %rax
	movq	%rax, %rdi
	call	_ZNKSt23_Rb_tree_const_iteratorIiEdeEv
	movl	(%rax), %ebx
	leaq	-144(%rbp), %rax
	movq	%rax, %rdi
	call	_ZNKSt23_Rb_tree_const_iteratorIiEdeEv
	movl	(%rax), %eax
	subl	%eax, %ebx
	movl	%ebx, %ecx
	movl	-164(%rbp), %eax
